ARM GAS  C:\Users\DWISET~1\AppData\Local\Temp\ccnysme0.s 			page 1


   1              		.syntax unified
   2              		.cpu cortex-m4
   3              		.eabi_attribute 27, 1
   4              		.fpu fpv4-sp-d16
   5              		.eabi_attribute 20, 1
   6              		.eabi_attribute 21, 1
   7              		.eabi_attribute 23, 3
   8              		.eabi_attribute 24, 1
   9              		.eabi_attribute 25, 1
  10              		.eabi_attribute 26, 1
  11              		.eabi_attribute 30, 1
  12              		.eabi_attribute 34, 1
  13              		.eabi_attribute 18, 4
  14              		.thumb
  15              		.syntax unified
  16              		.file	"main_cm4.c"
  17              		.text
  18              	.Ltext0:
  19              		.cfi_sections	.debug_frame
  20              		.section	.text.SysTickCallback,"ax",%progbits
  21              		.align	2
  22              		.global	SysTickCallback
  23              		.thumb
  24              		.thumb_func
  25              		.type	SysTickCallback, %function
  26              	SysTickCallback:
  27              	.LFB508:
  28              		.file 1 "main_cm4.c"
   1:main_cm4.c    **** /* ========================================
   2:main_cm4.c    ****  *
   3:main_cm4.c    ****  * Copyright YOUR COMPANY, THE YEAR
   4:main_cm4.c    ****  * All Rights Reserved
   5:main_cm4.c    ****  * UNPUBLISHED, LICENSED SOFTWARE.
   6:main_cm4.c    ****  *
   7:main_cm4.c    ****  * CONFIDENTIAL AND PROPRIETARY INFORMATION
   8:main_cm4.c    ****  * WHICH IS THE PROPERTY OF your company.
   9:main_cm4.c    ****  *
  10:main_cm4.c    ****  * ========================================
  11:main_cm4.c    **** */
  12:main_cm4.c    **** #include "project.h"
  13:main_cm4.c    **** #include "string.h"
  14:main_cm4.c    **** 
  15:main_cm4.c    **** #define I2C_BUFFER_SIZE (10u)
  16:main_cm4.c    **** #define BMP280_ADDR 0x76
  17:main_cm4.c    **** #define BMP280_ID   0x58
  18:main_cm4.c    **** 
  19:main_cm4.c    **** // sensor struct
  20:main_cm4.c    **** typedef struct {
  21:main_cm4.c    ****   uint16_t dig_T1; /**< dig_T1 cal register. */
  22:main_cm4.c    ****   int16_t dig_T2;  /**<  dig_T2 cal register. */
  23:main_cm4.c    ****   int16_t dig_T3;  /**< dig_T3 cal register. */
  24:main_cm4.c    **** 
  25:main_cm4.c    ****   uint16_t dig_P1; /**< dig_P1 cal register. */
  26:main_cm4.c    ****   int16_t dig_P2;  /**< dig_P2 cal register. */
  27:main_cm4.c    ****   int16_t dig_P3;  /**< dig_P3 cal register. */
  28:main_cm4.c    ****   int16_t dig_P4;  /**< dig_P4 cal register. */
  29:main_cm4.c    ****   int16_t dig_P5;  /**< dig_P5 cal register. */
ARM GAS  C:\Users\DWISET~1\AppData\Local\Temp\ccnysme0.s 			page 2


  30:main_cm4.c    ****   int16_t dig_P6;  /**< dig_P6 cal register. */
  31:main_cm4.c    ****   int16_t dig_P7;  /**< dig_P7 cal register. */
  32:main_cm4.c    ****   int16_t dig_P8;  /**< dig_P8 cal register. */
  33:main_cm4.c    ****   int16_t dig_P9;  /**< dig_P9 cal register. */
  34:main_cm4.c    **** } bmp280_calib_data;
  35:main_cm4.c    **** 
  36:main_cm4.c    **** typedef struct config_t_f {
  37:main_cm4.c    ****     /** Inactive duration (standby time) in normal mode */
  38:main_cm4.c    ****     unsigned int t_sb : 3;
  39:main_cm4.c    ****     /** Filter settings */
  40:main_cm4.c    ****     unsigned int filter : 3;
  41:main_cm4.c    ****     /** Unused - don't set */
  42:main_cm4.c    ****     unsigned int none : 1;
  43:main_cm4.c    ****     /** Enables 3-wire SPI */
  44:main_cm4.c    ****     unsigned int spi3w_en : 1;
  45:main_cm4.c    ****     /** Used to retrieve the assembled config register's byte value. */
  46:main_cm4.c    ****   }config_t;
  47:main_cm4.c    **** 
  48:main_cm4.c    ****  typedef struct ctrl_meas {
  49:main_cm4.c    ****     /** Temperature oversampling. */
  50:main_cm4.c    ****     unsigned int osrs_t : 3;
  51:main_cm4.c    ****     /** Pressure oversampling. */
  52:main_cm4.c    ****     unsigned int osrs_p : 3;
  53:main_cm4.c    ****     /** Device mode */
  54:main_cm4.c    ****     unsigned int mode : 2;
  55:main_cm4.c    ****     /** Used to retrieve the assembled ctrl_meas register's byte value. */
  56:main_cm4.c    ****   }ctrl_meas_t;
  57:main_cm4.c    **** 
  58:main_cm4.c    **** // sensor functions & variable
  59:main_cm4.c    **** bmp280_calib_data bmp280_data_cal;
  60:main_cm4.c    **** cy_en_scb_i2c_status_t  BMP280_read_calibration(bmp280_calib_data *data);
  61:main_cm4.c    **** cy_en_scb_i2c_status_t  BMP280_temp_configure(void);
  62:main_cm4.c    **** uint8_t BMP280_read_ID(void);
  63:main_cm4.c    **** cy_en_scb_i2c_status_t BMP280_readValue(bmp280_calib_data cal, float* temperature, float*pressure, 
  64:main_cm4.c    **** 
  65:main_cm4.c    **** #define SYS_TICK_INTERVAL_1mS	(32768/1000)-1
  66:main_cm4.c    **** uint32 tickCount;
  67:main_cm4.c    **** 
  68:main_cm4.c    **** void SysTickCallback(void) { tickCount++; }
  29              		.loc 1 68 0
  30              		.cfi_startproc
  31              		@ args = 0, pretend = 0, frame = 0
  32              		@ frame_needed = 0, uses_anonymous_args = 0
  33              		@ link register save eliminated.
  34              		.loc 1 68 0
  35 0000 024A     		ldr	r2, .L2
  36 0002 1368     		ldr	r3, [r2]
  37 0004 0133     		adds	r3, r3, #1
  38 0006 1360     		str	r3, [r2]
  39 0008 7047     		bx	lr
  40              	.L3:
  41 000a 00BF     		.align	2
  42              	.L2:
  43 000c 00000000 		.word	tickCount
  44              		.cfi_endproc
  45              	.LFE508:
  46              		.size	SysTickCallback, .-SysTickCallback
ARM GAS  C:\Users\DWISET~1\AppData\Local\Temp\ccnysme0.s 			page 3


  47              		.section	.text.getTick,"ax",%progbits
  48              		.align	2
  49              		.global	getTick
  50              		.thumb
  51              		.thumb_func
  52              		.type	getTick, %function
  53              	getTick:
  54              	.LFB509:
  69:main_cm4.c    **** uint32_t getTick()  { return tickCount; }
  55              		.loc 1 69 0
  56              		.cfi_startproc
  57              		@ args = 0, pretend = 0, frame = 0
  58              		@ frame_needed = 0, uses_anonymous_args = 0
  59              		@ link register save eliminated.
  60              		.loc 1 69 0
  61 0000 014B     		ldr	r3, .L5
  62 0002 1868     		ldr	r0, [r3]
  63 0004 7047     		bx	lr
  64              	.L6:
  65 0006 00BF     		.align	2
  66              	.L5:
  67 0008 00000000 		.word	tickCount
  68              		.cfi_endproc
  69              	.LFE509:
  70              		.size	getTick, .-getTick
  71              		.section	.text.ftoa,"ax",%progbits
  72              		.align	2
  73              		.global	ftoa
  74              		.thumb
  75              		.thumb_func
  76              		.type	ftoa, %function
  77              	ftoa:
  78              	.LFB510:
  70:main_cm4.c    **** 
  71:main_cm4.c    **** #define MAX_PRECISION	(6)
  72:main_cm4.c    **** static const float rounders[MAX_PRECISION + 1] =
  73:main_cm4.c    **** {
  74:main_cm4.c    **** 	0.5,				// 0
  75:main_cm4.c    **** 	0.05,				// 1
  76:main_cm4.c    **** 	0.005,				// 2
  77:main_cm4.c    **** 	0.0005,				// 3
  78:main_cm4.c    **** 	0.00005,			// 4,
  79:main_cm4.c    **** 	0.000005,			// 5,
  80:main_cm4.c    **** 	0.0000005			// 6
  81:main_cm4.c    **** };
  82:main_cm4.c    **** 
  83:main_cm4.c    **** char* ftoa(float f, char * buf, int precision)
  84:main_cm4.c    **** {
  79              		.loc 1 84 0
  80              		.cfi_startproc
  81              		@ args = 0, pretend = 0, frame = 8
  82              		@ frame_needed = 0, uses_anonymous_args = 0
  83              		@ link register save eliminated.
  84              	.LVL0:
  85 0000 F0B4     		push	{r4, r5, r6, r7}
  86              		.cfi_def_cfa_offset 16
  87              		.cfi_offset 4, -16
ARM GAS  C:\Users\DWISET~1\AppData\Local\Temp\ccnysme0.s 			page 4


  88              		.cfi_offset 5, -12
  89              		.cfi_offset 6, -8
  90              		.cfi_offset 7, -4
  91 0002 82B0     		sub	sp, sp, #8
  92              		.cfi_def_cfa_offset 24
  93 0004 07EE900A 		vmov	s15, r0
  94              	.LVL1:
  85:main_cm4.c    **** 	char * ptr = buf;
  86:main_cm4.c    **** 	char * p = ptr;
  87:main_cm4.c    **** 	char * p1;
  88:main_cm4.c    **** 	char c;
  89:main_cm4.c    **** 	long intPart;
  90:main_cm4.c    **** 	if (precision > MAX_PRECISION)		// check precision bounds
  95              		.loc 1 90 0
  96 0008 062A     		cmp	r2, #6
  97 000a 00DD     		ble	.L8
  91:main_cm4.c    **** 		precision = MAX_PRECISION;
  98              		.loc 1 91 0
  99 000c 0622     		movs	r2, #6
 100              	.LVL2:
 101              	.L8:
  92:main_cm4.c    **** 	if (f < 0) {		// sign stuff
 102              		.loc 1 92 0
 103 000e F5EEC07A 		vcmpe.f32	s15, #0
 104 0012 F1EE10FA 		vmrs	APSR_nzcv, FPSCR
 105 0016 05D5     		bpl	.L31
  93:main_cm4.c    **** 		f = -f;
 106              		.loc 1 93 0
 107 0018 F1EE677A 		vneg.f32	s15, s15
 108              	.LVL3:
  94:main_cm4.c    **** 		*ptr++ = '-';
 109              		.loc 1 94 0
 110 001c 4E1C     		adds	r6, r1, #1
 111              	.LVL4:
 112 001e 2D23     		movs	r3, #45
 113 0020 0B70     		strb	r3, [r1]
 114 0022 00E0     		b	.L9
 115              	.LVL5:
 116              	.L31:
  85:main_cm4.c    **** 	char * p = ptr;
 117              		.loc 1 85 0
 118 0024 0E46     		mov	r6, r1
 119              	.LVL6:
 120              	.L9:
  95:main_cm4.c    **** 	}
  96:main_cm4.c    **** 	if (precision < 0) {  // negative precision == automatic precision guess
 121              		.loc 1 96 0
 122 0026 002A     		cmp	r2, #0
 123 0028 24DA     		bge	.L11
  97:main_cm4.c    **** 		if (f < 1.0) precision = 4;
 124              		.loc 1 97 0
 125 002a B7EE007A 		vmov.f32	s14, #1.0e+0
 126 002e F4EEC77A 		vcmpe.f32	s15, s14
 127 0032 F1EE10FA 		vmrs	APSR_nzcv, FPSCR
 128 0036 16D4     		bmi	.L24
  98:main_cm4.c    **** 		else if (f < 10.0) precision = 3;
 129              		.loc 1 98 0
ARM GAS  C:\Users\DWISET~1\AppData\Local\Temp\ccnysme0.s 			page 5


 130 0038 B2EE047A 		vmov.f32	s14, #1.0e+1
 131 003c F4EEC77A 		vcmpe.f32	s15, s14
 132 0040 F1EE10FA 		vmrs	APSR_nzcv, FPSCR
 133 0044 11D4     		bmi	.L25
  99:main_cm4.c    **** 		else if (f < 100.0) precision = 2;
 134              		.loc 1 99 0
 135 0046 9FED377A 		vldr.32	s14, .L34
 136 004a F4EEC77A 		vcmpe.f32	s15, s14
 137 004e F1EE10FA 		vmrs	APSR_nzcv, FPSCR
 138 0052 0CD4     		bmi	.L26
 100:main_cm4.c    **** 		else if (f < 1000.0) precision = 1;
 139              		.loc 1 100 0
 140 0054 9FED347A 		vldr.32	s14, .L34+4
 141 0058 F4EEC77A 		vcmpe.f32	s15, s14
 142 005c F1EE10FA 		vmrs	APSR_nzcv, FPSCR
 143 0060 07D5     		bpl	.L32
 144 0062 0122     		movs	r2, #1
 145              	.LVL7:
 146 0064 06E0     		b	.L11
 147              	.LVL8:
 148              	.L24:
  97:main_cm4.c    **** 		else if (f < 10.0) precision = 3;
 149              		.loc 1 97 0
 150 0066 0422     		movs	r2, #4
 151              	.LVL9:
 152 0068 04E0     		b	.L11
 153              	.LVL10:
 154              	.L25:
  98:main_cm4.c    **** 		else if (f < 100.0) precision = 2;
 155              		.loc 1 98 0
 156 006a 0322     		movs	r2, #3
 157              	.LVL11:
 158 006c 02E0     		b	.L11
 159              	.LVL12:
 160              	.L26:
  99:main_cm4.c    **** 		else if (f < 1000.0) precision = 1;
 161              		.loc 1 99 0
 162 006e 0222     		movs	r2, #2
 163              	.LVL13:
 164 0070 00E0     		b	.L11
 165              	.LVL14:
 166              	.L32:
 101:main_cm4.c    **** 		else precision = 0;
 167              		.loc 1 101 0
 168 0072 0022     		movs	r2, #0
 169              	.LVL15:
 170              	.L11:
 102:main_cm4.c    **** 	}
 103:main_cm4.c    **** 	if (precision)  	// round value according the precision
 171              		.loc 1 103 0
 172 0074 32B1     		cbz	r2, .L13
 104:main_cm4.c    **** 		f += rounders[precision];
 173              		.loc 1 104 0
 174 0076 2D4B     		ldr	r3, .L34+8
 175 0078 03EB8203 		add	r3, r3, r2, lsl #2
 176 007c 93ED007A 		vldr.32	s14, [r3]
 177 0080 77EE877A 		vadd.f32	s15, s15, s14
ARM GAS  C:\Users\DWISET~1\AppData\Local\Temp\ccnysme0.s 			page 6


 178              	.LVL16:
 179              	.L13:
 105:main_cm4.c    **** 	// integer part...
 106:main_cm4.c    **** 	intPart = f;
 180              		.loc 1 106 0
 181 0084 BDEEE77A 		vcvt.s32.f32	s14, s15
 182 0088 17EE105A 		vmov	r5, s14	@ int
 183              	.LVL17:
 107:main_cm4.c    **** 	f -= intPart;
 184              		.loc 1 107 0
 185 008c B8EEC77A 		vcvt.f32.s32	s14, s14
 186 0090 77EEC77A 		vsub.f32	s15, s15, s14
 187              	.LVL18:
 108:main_cm4.c    **** 	if (!intPart)
 188              		.loc 1 108 0
 189 0094 9DB9     		cbnz	r5, .L28
 109:main_cm4.c    **** 		*ptr++ = '0';
 190              		.loc 1 109 0
 191 0096 741C     		adds	r4, r6, #1
 192              	.LVL19:
 193 0098 3023     		movs	r3, #48
 194 009a 3370     		strb	r3, [r6]
 195 009c 1EE0     		b	.L15
 196              	.LVL20:
 197              	.L16:
 110:main_cm4.c    **** 	else
 111:main_cm4.c    **** 	{
 112:main_cm4.c    **** 		p = ptr;	// save start pointer
 113:main_cm4.c    **** 		while (intPart) { // convert (reverse order)
 114:main_cm4.c    **** 			*p++ = '0' + intPart % 10;
 198              		.loc 1 114 0
 199 009e 244B     		ldr	r3, .L34+12
 200 00a0 83FB0537 		smull	r3, r7, r3, r5
 201 00a4 EB17     		asrs	r3, r5, #31
 202 00a6 C3EBA703 		rsb	r3, r3, r7, asr #2
 203 00aa 1F46     		mov	r7, r3
 204 00ac 03EB8303 		add	r3, r3, r3, lsl #2
 205 00b0 5800     		lsls	r0, r3, #1
 206 00b2 2B1A     		subs	r3, r5, r0
 207 00b4 3033     		adds	r3, r3, #48
 208 00b6 2370     		strb	r3, [r4]
 115:main_cm4.c    **** 			intPart /= 10;
 209              		.loc 1 115 0
 210 00b8 3D46     		mov	r5, r7
 211              	.LVL21:
 114:main_cm4.c    **** 			intPart /= 10;
 212              		.loc 1 114 0
 213 00ba 0134     		adds	r4, r4, #1
 214              	.LVL22:
 215 00bc 00E0     		b	.L14
 216              	.LVL23:
 217              	.L28:
 218 00be 3446     		mov	r4, r6
 219              	.LVL24:
 220              	.L14:
 113:main_cm4.c    **** 			*p++ = '0' + intPart % 10;
 221              		.loc 1 113 0
ARM GAS  C:\Users\DWISET~1\AppData\Local\Temp\ccnysme0.s 			page 7


 222 00c0 002D     		cmp	r5, #0
 223 00c2 ECD1     		bne	.L16
 224 00c4 2346     		mov	r3, r4
 225 00c6 07E0     		b	.L17
 226              	.LVL25:
 227              	.L18:
 116:main_cm4.c    **** 		}
 117:main_cm4.c    **** 		p1 = p;  // save end pos
 118:main_cm4.c    **** 		while (p > ptr)	{ // reverse result
 119:main_cm4.c    **** 			c = *--p;
 228              		.loc 1 119 0
 229 00c8 13F8010D 		ldrb	r0, [r3, #-1]!	@ zero_extendqisi2
 230              	.LVL26:
 120:main_cm4.c    **** 			*p = *ptr;
 231              		.loc 1 120 0
 232 00cc 3546     		mov	r5, r6
 233 00ce 15F8017B 		ldrb	r7, [r5], #1	@ zero_extendqisi2
 234 00d2 1F70     		strb	r7, [r3]
 235              	.LVL27:
 121:main_cm4.c    **** 			*ptr++ = c;
 236              		.loc 1 121 0
 237 00d4 3070     		strb	r0, [r6]
 238 00d6 2E46     		mov	r6, r5
 239              	.LVL28:
 240              	.L17:
 118:main_cm4.c    **** 			c = *--p;
 241              		.loc 1 118 0
 242 00d8 9E42     		cmp	r6, r3
 243 00da F5D3     		bcc	.L18
 244              	.LVL29:
 245              	.L15:
 122:main_cm4.c    **** 		}
 123:main_cm4.c    **** 		ptr = p1;	// restore end pos
 124:main_cm4.c    **** 	}
 125:main_cm4.c    **** 	if (precision) {	// decimal part
 246              		.loc 1 125 0
 247 00dc DAB1     		cbz	r2, .L19
 248              	.LVL30:
 126:main_cm4.c    **** 		*ptr++ = '.';	// place decimal point
 249              		.loc 1 126 0
 250 00de 2E23     		movs	r3, #46
 251 00e0 2370     		strb	r3, [r4]
 252 00e2 0134     		adds	r4, r4, #1
 253              	.LVL31:
 127:main_cm4.c    **** 		while (precision--)	 { // convert
 254              		.loc 1 127 0
 255 00e4 14E0     		b	.L20
 256              	.LVL32:
 257              	.L21:
 128:main_cm4.c    **** 			f *= 10.0;
 258              		.loc 1 128 0
 259 00e6 B2EE047A 		vmov.f32	s14, #1.0e+1
 260 00ea 27EE877A 		vmul.f32	s14, s15, s14
 261              	.LVL33:
 129:main_cm4.c    **** 			c = f;
 262              		.loc 1 129 0
 263 00ee FCEEC77A 		vcvt.u32.f32	s15, s14
ARM GAS  C:\Users\DWISET~1\AppData\Local\Temp\ccnysme0.s 			page 8


 264 00f2 CDED017A 		vstr.32	s15, [sp, #4]	@ int
 265 00f6 9DF80430 		ldrb	r3, [sp, #4]	@ zero_extendqisi2
 266              	.LVL34:
 130:main_cm4.c    **** 			*ptr++ = '0' + c;
 267              		.loc 1 130 0
 268 00fa 03F13002 		add	r2, r3, #48
 269 00fe 2270     		strb	r2, [r4]
 131:main_cm4.c    **** 			f -= c;
 270              		.loc 1 131 0
 271 0100 07EE903A 		vmov	s15, r3	@ int
 272 0104 F8EEE77A 		vcvt.f32.s32	s15, s15
 273 0108 77EE677A 		vsub.f32	s15, s14, s15
 274              	.LVL35:
 127:main_cm4.c    **** 			f *= 10.0;
 275              		.loc 1 127 0
 276 010c 0246     		mov	r2, r0
 130:main_cm4.c    **** 			*ptr++ = '0' + c;
 277              		.loc 1 130 0
 278 010e 0134     		adds	r4, r4, #1
 279              	.LVL36:
 280              	.L20:
 127:main_cm4.c    **** 			f *= 10.0;
 281              		.loc 1 127 0
 282 0110 501E     		subs	r0, r2, #1
 283              	.LVL37:
 284 0112 002A     		cmp	r2, #0
 285 0114 E7D1     		bne	.L21
 286              	.LVL38:
 287              	.L19:
 132:main_cm4.c    **** 		}
 133:main_cm4.c    **** 	}
 134:main_cm4.c    **** 	*ptr = 0;	// terminating zero
 288              		.loc 1 134 0
 289 0116 0023     		movs	r3, #0
 290 0118 2370     		strb	r3, [r4]
 135:main_cm4.c    **** 	return buf;
 136:main_cm4.c    **** }
 291              		.loc 1 136 0
 292 011a 0846     		mov	r0, r1
 293 011c 02B0     		add	sp, sp, #8
 294              		.cfi_def_cfa_offset 16
 295              		@ sp needed
 296 011e F0BC     		pop	{r4, r5, r6, r7}
 297              		.cfi_restore 7
 298              		.cfi_restore 6
 299              		.cfi_restore 5
 300              		.cfi_restore 4
 301              		.cfi_def_cfa_offset 0
 302              	.LVL39:
 303 0120 7047     		bx	lr
 304              	.L35:
 305 0122 00BF     		.align	2
 306              	.L34:
 307 0124 0000C842 		.word	1120403456
 308 0128 00007A44 		.word	1148846080
 309 012c 00000000 		.word	.LANCHOR0
 310 0130 67666666 		.word	1717986919
ARM GAS  C:\Users\DWISET~1\AppData\Local\Temp\ccnysme0.s 			page 9


 311              		.cfi_endproc
 312              	.LFE510:
 313              		.size	ftoa, .-ftoa
 314              		.section	.text.bmp_write_bytes,"ax",%progbits
 315              		.align	2
 316              		.global	bmp_write_bytes
 317              		.thumb
 318              		.thumb_func
 319              		.type	bmp_write_bytes, %function
 320              	bmp_write_bytes:
 321              	.LFB512:
 137:main_cm4.c    **** 
 138:main_cm4.c    **** int main(void)
 139:main_cm4.c    **** {
 140:main_cm4.c    ****     __enable_irq(); /* Enable global interrupts. */
 141:main_cm4.c    **** 
 142:main_cm4.c    ****     /* Place your initialization/startup code here (e.g. MyInst_Start()) */
 143:main_cm4.c    ****     UART_Start();
 144:main_cm4.c    ****     
 145:main_cm4.c    ****     UART_PutString("Hello\r\n");
 146:main_cm4.c    ****     char buf_txt[25]; char strF[10];
 147:main_cm4.c    ****     uint8_t btn_state, pin_state;
 148:main_cm4.c    ****     
 149:main_cm4.c    ****     // setup systick
 150:main_cm4.c    ****     Cy_SysTick_Init(CY_SYSTICK_CLOCK_SOURCE_CLK_LF, SYS_TICK_INTERVAL_1mS);
 151:main_cm4.c    **** 	Cy_SysTick_SetCallback(0,SysTickCallback);
 152:main_cm4.c    ****     uint32_t lastTick = 0;
 153:main_cm4.c    ****     
 154:main_cm4.c    ****     // setup I2C
 155:main_cm4.c    ****     I2C_Start();
 156:main_cm4.c    **** 
 157:main_cm4.c    ****     // init sensor
 158:main_cm4.c    ****     uint8_t sensorID = BMP280_read_ID();
 159:main_cm4.c    ****     if( sensorID == BMP280_ID )
 160:main_cm4.c    ****     {
 161:main_cm4.c    ****         UART_PutString("Device Found !\r\n");
 162:main_cm4.c    ****         sprintf(buf_txt,(const char*)("Sensor ID = 0x%x \r\n"), sensorID);
 163:main_cm4.c    ****         UART_PutString(buf_txt);
 164:main_cm4.c    ****         
 165:main_cm4.c    ****         if( BMP280_read_calibration(&bmp280_data_cal) == CY_SCB_I2C_SUCCESS )
 166:main_cm4.c    ****         {
 167:main_cm4.c    ****             UART_PutString("Load param success !\r\n");
 168:main_cm4.c    ****             BMP280_temp_configure();
 169:main_cm4.c    ****         }
 170:main_cm4.c    ****     }
 171:main_cm4.c    ****     float tp, press;
 172:main_cm4.c    ****     for(;;)
 173:main_cm4.c    ****     {
 174:main_cm4.c    ****         if( getTick() - lastTick >= 1000)
 175:main_cm4.c    ****         {
 176:main_cm4.c    ****             btn_state = Cy_GPIO_Read(button_PORT,button_NUM);
 177:main_cm4.c    ****             pin_state = Cy_GPIO_Read(TP_PORT, TP_NUM);
 178:main_cm4.c    ****             sprintf(buf_txt,(const char*)("state : %d \t %d \t %d\r\n"), btn_state, pin_state,getTi
 179:main_cm4.c    ****             UART_PutString(buf_txt);
 180:main_cm4.c    ****             Cy_GPIO_Inv(P7_1_PORT, P7_1_NUM);
 181:main_cm4.c    ****             BMP280_readValue(bmp280_data_cal, &tp, &press, 500);
 182:main_cm4.c    ****             sprintf(buf_txt,(const char*)("temperature : %s \t"), ftoa(tp,strF,2));
ARM GAS  C:\Users\DWISET~1\AppData\Local\Temp\ccnysme0.s 			page 10


 183:main_cm4.c    ****             UART_PutString(buf_txt);
 184:main_cm4.c    ****             sprintf(buf_txt,(const char*)("pressure : %sPa\r\n"), ftoa(press,strF,2));
 185:main_cm4.c    ****             UART_PutString(buf_txt);
 186:main_cm4.c    ****             lastTick = getTick();
 187:main_cm4.c    ****         }
 188:main_cm4.c    ****         /* Place your application code here. */
 189:main_cm4.c    ****     }
 190:main_cm4.c    **** }
 191:main_cm4.c    **** 
 192:main_cm4.c    **** cy_en_scb_i2c_status_t bmp_write_bytes(uint8_t *data, uint8_t dataLen, uint32_t timeout)
 193:main_cm4.c    **** {
 322              		.loc 1 193 0
 323              		.cfi_startproc
 324              		@ args = 0, pretend = 0, frame = 0
 325              		@ frame_needed = 0, uses_anonymous_args = 0
 326              	.LVL40:
 327 0000 F0B5     		push	{r4, r5, r6, r7, lr}
 328              		.cfi_def_cfa_offset 20
 329              		.cfi_offset 4, -20
 330              		.cfi_offset 5, -16
 331              		.cfi_offset 6, -12
 332              		.cfi_offset 7, -8
 333              		.cfi_offset 14, -4
 334 0002 83B0     		sub	sp, sp, #12
 335              		.cfi_def_cfa_offset 32
 336 0004 0746     		mov	r7, r0
 337 0006 0E46     		mov	r6, r1
 338 0008 1546     		mov	r5, r2
 339              	.LVL41:
 340              	.LBB68:
 341              	.LBB69:
 342              		.file 2 "Generated_Source\\PSoC6/I2C.h"
   1:Generated_Source\PSoC6/I2C.h **** /***************************************************************************//**
   2:Generated_Source\PSoC6/I2C.h **** * \file I2C.c
   3:Generated_Source\PSoC6/I2C.h **** * \version 2.0
   4:Generated_Source\PSoC6/I2C.h **** *
   5:Generated_Source\PSoC6/I2C.h **** *  This file provides constants and parameter values for the I2C component.
   6:Generated_Source\PSoC6/I2C.h **** *
   7:Generated_Source\PSoC6/I2C.h **** ********************************************************************************
   8:Generated_Source\PSoC6/I2C.h **** * \copyright
   9:Generated_Source\PSoC6/I2C.h **** * Copyright 2016-2017, Cypress Semiconductor Corporation. All rights reserved.
  10:Generated_Source\PSoC6/I2C.h **** * You may use this file only in accordance with the license, terms, conditions,
  11:Generated_Source\PSoC6/I2C.h **** * disclaimers, and limitations in the end user license agreement accompanying
  12:Generated_Source\PSoC6/I2C.h **** * the software package with which this file was provided.
  13:Generated_Source\PSoC6/I2C.h **** *******************************************************************************/
  14:Generated_Source\PSoC6/I2C.h **** 
  15:Generated_Source\PSoC6/I2C.h **** #if !defined(I2C_CY_SCB_I2C_PDL_H)
  16:Generated_Source\PSoC6/I2C.h **** #define I2C_CY_SCB_I2C_PDL_H
  17:Generated_Source\PSoC6/I2C.h **** 
  18:Generated_Source\PSoC6/I2C.h **** #include "cyfitter.h"
  19:Generated_Source\PSoC6/I2C.h **** #include "scb/cy_scb_i2c.h"
  20:Generated_Source\PSoC6/I2C.h **** 
  21:Generated_Source\PSoC6/I2C.h **** #if defined(__cplusplus)
  22:Generated_Source\PSoC6/I2C.h **** extern "C" {
  23:Generated_Source\PSoC6/I2C.h **** #endif
  24:Generated_Source\PSoC6/I2C.h **** 
  25:Generated_Source\PSoC6/I2C.h **** /***************************************
ARM GAS  C:\Users\DWISET~1\AppData\Local\Temp\ccnysme0.s 			page 11


  26:Generated_Source\PSoC6/I2C.h **** *   Initial Parameter Constants
  27:Generated_Source\PSoC6/I2C.h **** ****************************************/
  28:Generated_Source\PSoC6/I2C.h **** 
  29:Generated_Source\PSoC6/I2C.h **** #define I2C_MODE               (0x2U)
  30:Generated_Source\PSoC6/I2C.h **** #define I2C_MODE_SLAVE_MASK    (0x1U)
  31:Generated_Source\PSoC6/I2C.h **** #define I2C_MODE_MASTER_MASK   (0x2U)
  32:Generated_Source\PSoC6/I2C.h **** 
  33:Generated_Source\PSoC6/I2C.h **** #define I2C_ENABLE_SLAVE       (0UL != (I2C_MODE & I2C_MODE_SLAVE_MASK))
  34:Generated_Source\PSoC6/I2C.h **** #define I2C_ENABLE_MASTER      (0UL != (I2C_MODE & I2C_MODE_MASTER_MASK))
  35:Generated_Source\PSoC6/I2C.h **** #define I2C_MANUAL_SCL_CONTROL (0U)
  36:Generated_Source\PSoC6/I2C.h **** 
  37:Generated_Source\PSoC6/I2C.h **** 
  38:Generated_Source\PSoC6/I2C.h **** /***************************************
  39:Generated_Source\PSoC6/I2C.h **** *        Function Prototypes
  40:Generated_Source\PSoC6/I2C.h **** ***************************************/
  41:Generated_Source\PSoC6/I2C.h **** /**
  42:Generated_Source\PSoC6/I2C.h **** * \addtogroup group_general
  43:Generated_Source\PSoC6/I2C.h **** * @{
  44:Generated_Source\PSoC6/I2C.h **** */
  45:Generated_Source\PSoC6/I2C.h **** /* Component only APIs. */
  46:Generated_Source\PSoC6/I2C.h **** void I2C_Start(void);
  47:Generated_Source\PSoC6/I2C.h **** 
  48:Generated_Source\PSoC6/I2C.h **** /* Basic functions. */
  49:Generated_Source\PSoC6/I2C.h **** __STATIC_INLINE cy_en_scb_i2c_status_t I2C_Init(cy_stc_scb_i2c_config_t const *config);
  50:Generated_Source\PSoC6/I2C.h **** __STATIC_INLINE void I2C_DeInit (void);
  51:Generated_Source\PSoC6/I2C.h **** __STATIC_INLINE void I2C_Enable (void);
  52:Generated_Source\PSoC6/I2C.h **** __STATIC_INLINE void I2C_Disable(void);
  53:Generated_Source\PSoC6/I2C.h **** 
  54:Generated_Source\PSoC6/I2C.h **** /* Data rate configuration functions. */
  55:Generated_Source\PSoC6/I2C.h **** __STATIC_INLINE uint32_t I2C_SetDataRate(uint32_t dataRateHz, uint32_t scbClockHz);
  56:Generated_Source\PSoC6/I2C.h **** __STATIC_INLINE uint32_t I2C_GetDataRate(uint32_t scbClockHz);
  57:Generated_Source\PSoC6/I2C.h **** 
  58:Generated_Source\PSoC6/I2C.h **** /* Register callbacks. */
  59:Generated_Source\PSoC6/I2C.h **** __STATIC_INLINE void I2C_RegisterEventCallback(cy_cb_scb_i2c_handle_events_t callback);
  60:Generated_Source\PSoC6/I2C.h **** #if (I2C_ENABLE_SLAVE)
  61:Generated_Source\PSoC6/I2C.h **** __STATIC_INLINE void I2C_RegisterAddrCallback (cy_cb_scb_i2c_handle_addr_t callback);
  62:Generated_Source\PSoC6/I2C.h **** #endif /* (I2C_ENABLE_SLAVE) */
  63:Generated_Source\PSoC6/I2C.h **** 
  64:Generated_Source\PSoC6/I2C.h **** /* Configuration functions. */
  65:Generated_Source\PSoC6/I2C.h **** #if (I2C_ENABLE_SLAVE)
  66:Generated_Source\PSoC6/I2C.h **** __STATIC_INLINE void     I2C_SlaveSetAddress(uint8_t addr);
  67:Generated_Source\PSoC6/I2C.h **** __STATIC_INLINE uint32_t I2C_SlaveGetAddress(void);
  68:Generated_Source\PSoC6/I2C.h **** __STATIC_INLINE void     I2C_SlaveSetAddressMask(uint8_t addrMask);
  69:Generated_Source\PSoC6/I2C.h **** __STATIC_INLINE uint32_t I2C_SlaveGetAddressMask(void);
  70:Generated_Source\PSoC6/I2C.h **** #endif /* (I2C_ENABLE_SLAVE) */
  71:Generated_Source\PSoC6/I2C.h **** 
  72:Generated_Source\PSoC6/I2C.h **** #if (I2C_ENABLE_MASTER)
  73:Generated_Source\PSoC6/I2C.h **** __STATIC_INLINE void I2C_MasterSetLowPhaseDutyCycle (uint32_t clockCycles);
  74:Generated_Source\PSoC6/I2C.h **** __STATIC_INLINE void I2C_MasterSetHighPhaseDutyCycle(uint32_t clockCycles);
  75:Generated_Source\PSoC6/I2C.h **** #endif /* (I2C_ENABLE_MASTER) */
  76:Generated_Source\PSoC6/I2C.h **** 
  77:Generated_Source\PSoC6/I2C.h **** /* Bus status. */
  78:Generated_Source\PSoC6/I2C.h **** __STATIC_INLINE bool     I2C_IsBusBusy(void);
  79:Generated_Source\PSoC6/I2C.h **** 
  80:Generated_Source\PSoC6/I2C.h **** /* Slave functions. */
  81:Generated_Source\PSoC6/I2C.h **** #if (I2C_ENABLE_SLAVE)
  82:Generated_Source\PSoC6/I2C.h **** __STATIC_INLINE uint32_t I2C_SlaveGetStatus(void);
ARM GAS  C:\Users\DWISET~1\AppData\Local\Temp\ccnysme0.s 			page 12


  83:Generated_Source\PSoC6/I2C.h **** 
  84:Generated_Source\PSoC6/I2C.h **** __STATIC_INLINE void     I2C_SlaveConfigReadBuf(uint8_t *buffer, uint32_t size);
  85:Generated_Source\PSoC6/I2C.h **** __STATIC_INLINE void     I2C_SlaveAbortRead(void);
  86:Generated_Source\PSoC6/I2C.h **** __STATIC_INLINE uint32_t I2C_SlaveGetReadTransferCount(void);
  87:Generated_Source\PSoC6/I2C.h **** __STATIC_INLINE uint32_t I2C_SlaveClearReadStatus(void);
  88:Generated_Source\PSoC6/I2C.h **** 
  89:Generated_Source\PSoC6/I2C.h **** __STATIC_INLINE void     I2C_SlaveConfigWriteBuf(uint8_t *buffer, uint32_t size);
  90:Generated_Source\PSoC6/I2C.h **** __STATIC_INLINE void     I2C_SlaveAbortWrite(void);
  91:Generated_Source\PSoC6/I2C.h **** __STATIC_INLINE uint32_t I2C_SlaveGetWriteTransferCount(void);
  92:Generated_Source\PSoC6/I2C.h **** __STATIC_INLINE uint32_t I2C_SlaveClearWriteStatus(void);
  93:Generated_Source\PSoC6/I2C.h **** #endif /* (I2C_ENABLE_SLAVE) */
  94:Generated_Source\PSoC6/I2C.h **** 
  95:Generated_Source\PSoC6/I2C.h **** /* Master interrupt processing functions. */
  96:Generated_Source\PSoC6/I2C.h **** #if (I2C_ENABLE_MASTER)
  97:Generated_Source\PSoC6/I2C.h **** __STATIC_INLINE uint32_t I2C_MasterGetStatus(void);
  98:Generated_Source\PSoC6/I2C.h **** 
  99:Generated_Source\PSoC6/I2C.h **** __STATIC_INLINE cy_en_scb_i2c_status_t I2C_MasterRead(cy_stc_scb_i2c_master_xfer_config_t *xferConf
 100:Generated_Source\PSoC6/I2C.h **** __STATIC_INLINE void I2C_MasterAbortRead(void);
 101:Generated_Source\PSoC6/I2C.h **** __STATIC_INLINE cy_en_scb_i2c_status_t I2C_MasterWrite(cy_stc_scb_i2c_master_xfer_config_t *xferCon
 102:Generated_Source\PSoC6/I2C.h **** __STATIC_INLINE void I2C_MasterAbortWrite(void);
 103:Generated_Source\PSoC6/I2C.h **** __STATIC_INLINE uint32_t I2C_MasterGetTransferCount(void);
 104:Generated_Source\PSoC6/I2C.h **** 
 105:Generated_Source\PSoC6/I2C.h **** /* Master manual processing functions. */
 106:Generated_Source\PSoC6/I2C.h **** __STATIC_INLINE cy_en_scb_i2c_status_t I2C_MasterSendStart(uint32_t address, cy_en_scb_i2c_directio
 107:Generated_Source\PSoC6/I2C.h **** __STATIC_INLINE cy_en_scb_i2c_status_t I2C_MasterSendReStart(uint32_t address, cy_en_scb_i2c_direct
 108:Generated_Source\PSoC6/I2C.h **** __STATIC_INLINE cy_en_scb_i2c_status_t I2C_MasterSendStop(uint32_t timeoutMs);
 109:Generated_Source\PSoC6/I2C.h **** __STATIC_INLINE cy_en_scb_i2c_status_t I2C_MasterReadByte(cy_en_scb_i2c_command_t ackNack, uint8_t 
 110:Generated_Source\PSoC6/I2C.h **** __STATIC_INLINE cy_en_scb_i2c_status_t I2C_MasterWriteByte(uint8_t byte, uint32_t timeoutMs);
 111:Generated_Source\PSoC6/I2C.h **** #endif /* (I2C_ENABLE_MASTER) */
 112:Generated_Source\PSoC6/I2C.h **** 
 113:Generated_Source\PSoC6/I2C.h **** /* Interrupt handler. */
 114:Generated_Source\PSoC6/I2C.h **** __STATIC_INLINE void I2C_Interrupt(void);
 115:Generated_Source\PSoC6/I2C.h **** /** @} group_general */
 116:Generated_Source\PSoC6/I2C.h **** 
 117:Generated_Source\PSoC6/I2C.h **** 
 118:Generated_Source\PSoC6/I2C.h **** /***************************************
 119:Generated_Source\PSoC6/I2C.h **** *    Variables with External Linkage
 120:Generated_Source\PSoC6/I2C.h **** ***************************************/
 121:Generated_Source\PSoC6/I2C.h **** /**
 122:Generated_Source\PSoC6/I2C.h **** * \addtogroup group_globals
 123:Generated_Source\PSoC6/I2C.h **** * @{
 124:Generated_Source\PSoC6/I2C.h **** */
 125:Generated_Source\PSoC6/I2C.h **** extern uint8_t I2C_initVar;
 126:Generated_Source\PSoC6/I2C.h **** extern cy_stc_scb_i2c_config_t const I2C_config;
 127:Generated_Source\PSoC6/I2C.h **** extern cy_stc_scb_i2c_context_t I2C_context;
 128:Generated_Source\PSoC6/I2C.h **** /** @} group_globals */
 129:Generated_Source\PSoC6/I2C.h **** 
 130:Generated_Source\PSoC6/I2C.h **** 
 131:Generated_Source\PSoC6/I2C.h **** /***************************************
 132:Generated_Source\PSoC6/I2C.h **** *         Preprocessor Macros
 133:Generated_Source\PSoC6/I2C.h **** ***************************************/
 134:Generated_Source\PSoC6/I2C.h **** /**
 135:Generated_Source\PSoC6/I2C.h **** * \addtogroup group_macros
 136:Generated_Source\PSoC6/I2C.h **** * @{
 137:Generated_Source\PSoC6/I2C.h **** */
 138:Generated_Source\PSoC6/I2C.h **** /** The pointer to the base address of the SCB instance */
 139:Generated_Source\PSoC6/I2C.h **** #define I2C_HW     ((CySCB_Type *) I2C_SCB__HW)
ARM GAS  C:\Users\DWISET~1\AppData\Local\Temp\ccnysme0.s 			page 13


 140:Generated_Source\PSoC6/I2C.h **** 
 141:Generated_Source\PSoC6/I2C.h **** /** The desired data rate in Hz */
 142:Generated_Source\PSoC6/I2C.h **** #define I2C_DATA_RATE_HZ      (100000U)
 143:Generated_Source\PSoC6/I2C.h **** 
 144:Generated_Source\PSoC6/I2C.h **** /** The frequency of the clock used by the Component in Hz */
 145:Generated_Source\PSoC6/I2C.h **** #define I2C_CLK_FREQ_HZ       (1600000U)
 146:Generated_Source\PSoC6/I2C.h **** 
 147:Generated_Source\PSoC6/I2C.h **** /** The number of Component clocks used by the master to generate the SCL
 148:Generated_Source\PSoC6/I2C.h **** * low phase. This number is calculated by GUI based on the selected data rate.
 149:Generated_Source\PSoC6/I2C.h **** */
 150:Generated_Source\PSoC6/I2C.h **** #define I2C_LOW_PHASE_DUTY_CYCLE   (8U)
 151:Generated_Source\PSoC6/I2C.h **** 
 152:Generated_Source\PSoC6/I2C.h **** /** The number of Component clocks used by the master to generate the SCL
 153:Generated_Source\PSoC6/I2C.h **** * high phase. This number is calculated by GUI based on the selected data rate.
 154:Generated_Source\PSoC6/I2C.h **** */
 155:Generated_Source\PSoC6/I2C.h **** #define I2C_HIGH_PHASE_DUTY_CYCLE  (8U)
 156:Generated_Source\PSoC6/I2C.h **** /** @} group_macros */
 157:Generated_Source\PSoC6/I2C.h **** 
 158:Generated_Source\PSoC6/I2C.h **** 
 159:Generated_Source\PSoC6/I2C.h **** /***************************************
 160:Generated_Source\PSoC6/I2C.h **** *    In-line Function Implementation
 161:Generated_Source\PSoC6/I2C.h **** ***************************************/
 162:Generated_Source\PSoC6/I2C.h **** 
 163:Generated_Source\PSoC6/I2C.h **** /*******************************************************************************
 164:Generated_Source\PSoC6/I2C.h **** * Function Name: I2C_Init
 165:Generated_Source\PSoC6/I2C.h **** ****************************************************************************//**
 166:Generated_Source\PSoC6/I2C.h **** *
 167:Generated_Source\PSoC6/I2C.h **** * Invokes the Cy_SCB_I2C_Init() PDL driver function.
 168:Generated_Source\PSoC6/I2C.h **** *
 169:Generated_Source\PSoC6/I2C.h **** *******************************************************************************/
 170:Generated_Source\PSoC6/I2C.h **** __STATIC_INLINE cy_en_scb_i2c_status_t I2C_Init(cy_stc_scb_i2c_config_t const *config)
 171:Generated_Source\PSoC6/I2C.h **** {
 172:Generated_Source\PSoC6/I2C.h ****     return Cy_SCB_I2C_Init(I2C_HW, config, &I2C_context);
 173:Generated_Source\PSoC6/I2C.h **** }
 174:Generated_Source\PSoC6/I2C.h **** 
 175:Generated_Source\PSoC6/I2C.h **** 
 176:Generated_Source\PSoC6/I2C.h **** /*******************************************************************************
 177:Generated_Source\PSoC6/I2C.h **** *  Function Name: I2C_DeInit
 178:Generated_Source\PSoC6/I2C.h **** ****************************************************************************//**
 179:Generated_Source\PSoC6/I2C.h **** *
 180:Generated_Source\PSoC6/I2C.h **** * Invokes the Cy_SCB_I2C_DeInit() PDL driver function.
 181:Generated_Source\PSoC6/I2C.h **** *
 182:Generated_Source\PSoC6/I2C.h **** *******************************************************************************/
 183:Generated_Source\PSoC6/I2C.h **** __STATIC_INLINE void I2C_DeInit(void)
 184:Generated_Source\PSoC6/I2C.h **** {
 185:Generated_Source\PSoC6/I2C.h ****     Cy_SCB_I2C_DeInit(I2C_HW);
 186:Generated_Source\PSoC6/I2C.h **** }
 187:Generated_Source\PSoC6/I2C.h **** 
 188:Generated_Source\PSoC6/I2C.h **** 
 189:Generated_Source\PSoC6/I2C.h **** /*******************************************************************************
 190:Generated_Source\PSoC6/I2C.h **** * Function Name: I2C_Enable
 191:Generated_Source\PSoC6/I2C.h **** ****************************************************************************//**
 192:Generated_Source\PSoC6/I2C.h **** *
 193:Generated_Source\PSoC6/I2C.h **** * Invokes the Cy_SCB_I2C_Enable() PDL driver function.
 194:Generated_Source\PSoC6/I2C.h **** *
 195:Generated_Source\PSoC6/I2C.h **** *******************************************************************************/
 196:Generated_Source\PSoC6/I2C.h **** __STATIC_INLINE void I2C_Enable(void)
ARM GAS  C:\Users\DWISET~1\AppData\Local\Temp\ccnysme0.s 			page 14


 197:Generated_Source\PSoC6/I2C.h **** {
 198:Generated_Source\PSoC6/I2C.h ****     Cy_SCB_I2C_Enable(I2C_HW);
 199:Generated_Source\PSoC6/I2C.h **** }
 200:Generated_Source\PSoC6/I2C.h **** 
 201:Generated_Source\PSoC6/I2C.h **** 
 202:Generated_Source\PSoC6/I2C.h **** /*******************************************************************************
 203:Generated_Source\PSoC6/I2C.h **** * Function Name: I2C_Disable
 204:Generated_Source\PSoC6/I2C.h **** ****************************************************************************//**
 205:Generated_Source\PSoC6/I2C.h **** *
 206:Generated_Source\PSoC6/I2C.h **** * Invokes the Cy_SCB_I2C_Disable() PDL driver function.
 207:Generated_Source\PSoC6/I2C.h **** *
 208:Generated_Source\PSoC6/I2C.h **** *******************************************************************************/
 209:Generated_Source\PSoC6/I2C.h **** __STATIC_INLINE void I2C_Disable(void)
 210:Generated_Source\PSoC6/I2C.h **** {
 211:Generated_Source\PSoC6/I2C.h ****     Cy_SCB_I2C_Disable(I2C_HW, &I2C_context);
 212:Generated_Source\PSoC6/I2C.h **** }
 213:Generated_Source\PSoC6/I2C.h **** 
 214:Generated_Source\PSoC6/I2C.h **** 
 215:Generated_Source\PSoC6/I2C.h **** /*******************************************************************************
 216:Generated_Source\PSoC6/I2C.h **** * Function Name: I2C_SetDataRate
 217:Generated_Source\PSoC6/I2C.h **** ****************************************************************************//**
 218:Generated_Source\PSoC6/I2C.h **** *
 219:Generated_Source\PSoC6/I2C.h **** * Invokes the Cy_SCB_I2C_SetDataRate() PDL driver function.
 220:Generated_Source\PSoC6/I2C.h **** *
 221:Generated_Source\PSoC6/I2C.h **** *******************************************************************************/
 222:Generated_Source\PSoC6/I2C.h **** __STATIC_INLINE uint32_t I2C_SetDataRate(uint32_t dataRateHz, uint32_t scbClockHz)
 223:Generated_Source\PSoC6/I2C.h **** {
 224:Generated_Source\PSoC6/I2C.h ****     return Cy_SCB_I2C_SetDataRate(I2C_HW, dataRateHz, scbClockHz);
 225:Generated_Source\PSoC6/I2C.h **** }
 226:Generated_Source\PSoC6/I2C.h **** 
 227:Generated_Source\PSoC6/I2C.h **** 
 228:Generated_Source\PSoC6/I2C.h **** /*******************************************************************************
 229:Generated_Source\PSoC6/I2C.h **** * Function Name: I2C_GetDataRate
 230:Generated_Source\PSoC6/I2C.h **** ****************************************************************************//**
 231:Generated_Source\PSoC6/I2C.h **** *
 232:Generated_Source\PSoC6/I2C.h **** * Invokes the Cy_SCB_I2C_GetDataRate() PDL driver function.
 233:Generated_Source\PSoC6/I2C.h **** *
 234:Generated_Source\PSoC6/I2C.h **** *******************************************************************************/
 235:Generated_Source\PSoC6/I2C.h **** __STATIC_INLINE uint32_t I2C_GetDataRate(uint32_t scbClockHz)
 236:Generated_Source\PSoC6/I2C.h **** {
 237:Generated_Source\PSoC6/I2C.h ****     return Cy_SCB_I2C_GetDataRate(I2C_HW, scbClockHz);
 238:Generated_Source\PSoC6/I2C.h **** }
 239:Generated_Source\PSoC6/I2C.h **** 
 240:Generated_Source\PSoC6/I2C.h **** 
 241:Generated_Source\PSoC6/I2C.h **** /*******************************************************************************
 242:Generated_Source\PSoC6/I2C.h **** * Function Name: I2C_RegisterEventCallback
 243:Generated_Source\PSoC6/I2C.h **** ****************************************************************************//**
 244:Generated_Source\PSoC6/I2C.h **** *
 245:Generated_Source\PSoC6/I2C.h **** * Invokes the Cy_SCB_I2C_RegisterEventCallback() PDL driver function.
 246:Generated_Source\PSoC6/I2C.h **** *
 247:Generated_Source\PSoC6/I2C.h **** *******************************************************************************/
 248:Generated_Source\PSoC6/I2C.h **** __STATIC_INLINE void I2C_RegisterEventCallback(cy_cb_scb_i2c_handle_events_t callback)
 249:Generated_Source\PSoC6/I2C.h **** {
 250:Generated_Source\PSoC6/I2C.h ****     Cy_SCB_I2C_RegisterEventCallback(I2C_HW, callback, &I2C_context);
 251:Generated_Source\PSoC6/I2C.h **** }
 252:Generated_Source\PSoC6/I2C.h **** 
 253:Generated_Source\PSoC6/I2C.h **** 
ARM GAS  C:\Users\DWISET~1\AppData\Local\Temp\ccnysme0.s 			page 15


 254:Generated_Source\PSoC6/I2C.h **** #if (I2C_ENABLE_SLAVE)
 255:Generated_Source\PSoC6/I2C.h **** /*******************************************************************************
 256:Generated_Source\PSoC6/I2C.h **** * Function Name: I2C_RegisterAddrCallback
 257:Generated_Source\PSoC6/I2C.h **** ****************************************************************************//**
 258:Generated_Source\PSoC6/I2C.h **** *
 259:Generated_Source\PSoC6/I2C.h **** * Invokes the Cy_SCB_I2C_RegisterAddrCallback() PDL driver function.
 260:Generated_Source\PSoC6/I2C.h **** *
 261:Generated_Source\PSoC6/I2C.h **** *******************************************************************************/
 262:Generated_Source\PSoC6/I2C.h **** __STATIC_INLINE void I2C_RegisterAddrCallback(cy_cb_scb_i2c_handle_addr_t callback)
 263:Generated_Source\PSoC6/I2C.h **** {
 264:Generated_Source\PSoC6/I2C.h ****     Cy_SCB_I2C_RegisterAddrCallback(I2C_HW, callback, &I2C_context);
 265:Generated_Source\PSoC6/I2C.h **** }
 266:Generated_Source\PSoC6/I2C.h **** #endif /* (I2C_ENABLE_SLAVE) */
 267:Generated_Source\PSoC6/I2C.h **** 
 268:Generated_Source\PSoC6/I2C.h **** 
 269:Generated_Source\PSoC6/I2C.h **** /*******************************************************************************
 270:Generated_Source\PSoC6/I2C.h **** * Function Name: I2C_IsBusBusy
 271:Generated_Source\PSoC6/I2C.h **** ****************************************************************************//**
 272:Generated_Source\PSoC6/I2C.h **** *
 273:Generated_Source\PSoC6/I2C.h **** * Invokes the Cy_SCB_I2C_IsBusBusy() PDL driver function.
 274:Generated_Source\PSoC6/I2C.h **** *
 275:Generated_Source\PSoC6/I2C.h **** *******************************************************************************/
 276:Generated_Source\PSoC6/I2C.h **** __STATIC_INLINE bool I2C_IsBusBusy(void)
 277:Generated_Source\PSoC6/I2C.h **** {
 278:Generated_Source\PSoC6/I2C.h ****     return Cy_SCB_I2C_IsBusBusy(I2C_HW);
 279:Generated_Source\PSoC6/I2C.h **** }
 280:Generated_Source\PSoC6/I2C.h **** 
 281:Generated_Source\PSoC6/I2C.h **** 
 282:Generated_Source\PSoC6/I2C.h **** #if (I2C_ENABLE_SLAVE)
 283:Generated_Source\PSoC6/I2C.h **** /*******************************************************************************
 284:Generated_Source\PSoC6/I2C.h **** * Function Name: I2C_SlaveSetAddress
 285:Generated_Source\PSoC6/I2C.h **** ****************************************************************************//**
 286:Generated_Source\PSoC6/I2C.h **** *
 287:Generated_Source\PSoC6/I2C.h **** * Invokes the Cy_SCB_I2C_SlaveGetAddress() PDL driver function.
 288:Generated_Source\PSoC6/I2C.h **** *
 289:Generated_Source\PSoC6/I2C.h **** *******************************************************************************/
 290:Generated_Source\PSoC6/I2C.h **** __STATIC_INLINE void I2C_SlaveSetAddress(uint8_t addr)
 291:Generated_Source\PSoC6/I2C.h **** {
 292:Generated_Source\PSoC6/I2C.h ****     Cy_SCB_I2C_SlaveSetAddress(I2C_HW, addr);
 293:Generated_Source\PSoC6/I2C.h **** }
 294:Generated_Source\PSoC6/I2C.h **** 
 295:Generated_Source\PSoC6/I2C.h **** 
 296:Generated_Source\PSoC6/I2C.h **** /*******************************************************************************
 297:Generated_Source\PSoC6/I2C.h **** * Function Name: I2C_SlaveGetAddress
 298:Generated_Source\PSoC6/I2C.h **** ****************************************************************************//**
 299:Generated_Source\PSoC6/I2C.h **** *
 300:Generated_Source\PSoC6/I2C.h **** * Invokes the Cy_SCB_I2C_SlaveGetAddress() PDL driver function.
 301:Generated_Source\PSoC6/I2C.h **** *
 302:Generated_Source\PSoC6/I2C.h **** *******************************************************************************/
 303:Generated_Source\PSoC6/I2C.h **** __STATIC_INLINE uint32_t I2C_SlaveGetAddress(void)
 304:Generated_Source\PSoC6/I2C.h **** {
 305:Generated_Source\PSoC6/I2C.h ****     return Cy_SCB_I2C_SlaveGetAddress(I2C_HW);
 306:Generated_Source\PSoC6/I2C.h **** }
 307:Generated_Source\PSoC6/I2C.h **** 
 308:Generated_Source\PSoC6/I2C.h **** 
 309:Generated_Source\PSoC6/I2C.h **** /*******************************************************************************
 310:Generated_Source\PSoC6/I2C.h **** * Function Name: I2C_SlaveSetAddressMask
ARM GAS  C:\Users\DWISET~1\AppData\Local\Temp\ccnysme0.s 			page 16


 311:Generated_Source\PSoC6/I2C.h **** ****************************************************************************//**
 312:Generated_Source\PSoC6/I2C.h **** *
 313:Generated_Source\PSoC6/I2C.h **** * Invokes the Cy_SCB_I2C_SlaveSetAddressMask() PDL driver function.
 314:Generated_Source\PSoC6/I2C.h **** *
 315:Generated_Source\PSoC6/I2C.h **** *******************************************************************************/
 316:Generated_Source\PSoC6/I2C.h **** __STATIC_INLINE void I2C_SlaveSetAddressMask(uint8_t addrMask)
 317:Generated_Source\PSoC6/I2C.h **** {
 318:Generated_Source\PSoC6/I2C.h ****     Cy_SCB_I2C_SlaveSetAddressMask(I2C_HW, addrMask);
 319:Generated_Source\PSoC6/I2C.h **** }
 320:Generated_Source\PSoC6/I2C.h **** 
 321:Generated_Source\PSoC6/I2C.h **** 
 322:Generated_Source\PSoC6/I2C.h **** /*******************************************************************************
 323:Generated_Source\PSoC6/I2C.h **** * Function Name: I2C_SlaveGetAddressMask
 324:Generated_Source\PSoC6/I2C.h **** ****************************************************************************//**
 325:Generated_Source\PSoC6/I2C.h **** *
 326:Generated_Source\PSoC6/I2C.h **** * Invokes the Cy_SCB_I2C_SlaveGetAddressMask() PDL driver function.
 327:Generated_Source\PSoC6/I2C.h **** *
 328:Generated_Source\PSoC6/I2C.h **** *******************************************************************************/
 329:Generated_Source\PSoC6/I2C.h **** __STATIC_INLINE uint32_t I2C_SlaveGetAddressMask(void)
 330:Generated_Source\PSoC6/I2C.h **** {
 331:Generated_Source\PSoC6/I2C.h ****     return Cy_SCB_I2C_SlaveGetAddressMask(I2C_HW);
 332:Generated_Source\PSoC6/I2C.h **** }
 333:Generated_Source\PSoC6/I2C.h **** #endif /* (I2C_ENABLE_SLAVE) */
 334:Generated_Source\PSoC6/I2C.h **** 
 335:Generated_Source\PSoC6/I2C.h **** #if (I2C_ENABLE_MASTER)
 336:Generated_Source\PSoC6/I2C.h **** /*******************************************************************************
 337:Generated_Source\PSoC6/I2C.h **** * Function Name: I2C_MasterSetLowPhaseDutyCycle
 338:Generated_Source\PSoC6/I2C.h **** ****************************************************************************//**
 339:Generated_Source\PSoC6/I2C.h **** *
 340:Generated_Source\PSoC6/I2C.h **** * Invokes the Cy_SCB_I2C_MasterSetLowPhaseDutyCycle() PDL driver function.
 341:Generated_Source\PSoC6/I2C.h **** *
 342:Generated_Source\PSoC6/I2C.h **** *******************************************************************************/
 343:Generated_Source\PSoC6/I2C.h **** __STATIC_INLINE void I2C_MasterSetLowPhaseDutyCycle(uint32_t clockCycles)
 344:Generated_Source\PSoC6/I2C.h **** {
 345:Generated_Source\PSoC6/I2C.h ****     Cy_SCB_I2C_MasterSetLowPhaseDutyCycle(I2C_HW, clockCycles);
 346:Generated_Source\PSoC6/I2C.h **** }
 347:Generated_Source\PSoC6/I2C.h **** 
 348:Generated_Source\PSoC6/I2C.h **** 
 349:Generated_Source\PSoC6/I2C.h **** /*******************************************************************************
 350:Generated_Source\PSoC6/I2C.h **** * Function Name: I2C_MasterSetHighPhaseDutyCycle
 351:Generated_Source\PSoC6/I2C.h **** ****************************************************************************//**
 352:Generated_Source\PSoC6/I2C.h **** *
 353:Generated_Source\PSoC6/I2C.h **** * Invokes the Cy_SCB_I2C_MasterSetHighPhaseDutyCycle() PDL driver function.
 354:Generated_Source\PSoC6/I2C.h **** *
 355:Generated_Source\PSoC6/I2C.h **** *******************************************************************************/
 356:Generated_Source\PSoC6/I2C.h **** __STATIC_INLINE void I2C_MasterSetHighPhaseDutyCycle(uint32_t clockCycles)
 357:Generated_Source\PSoC6/I2C.h **** {
 358:Generated_Source\PSoC6/I2C.h ****     Cy_SCB_I2C_MasterSetHighPhaseDutyCycle(I2C_HW, clockCycles);
 359:Generated_Source\PSoC6/I2C.h **** }
 360:Generated_Source\PSoC6/I2C.h **** #endif /* (I2C_ENABLE_MASTER) */
 361:Generated_Source\PSoC6/I2C.h **** 
 362:Generated_Source\PSoC6/I2C.h **** 
 363:Generated_Source\PSoC6/I2C.h **** #if (I2C_ENABLE_SLAVE)
 364:Generated_Source\PSoC6/I2C.h **** /*******************************************************************************
 365:Generated_Source\PSoC6/I2C.h **** * Function Name: I2C_SlaveGetStatus
 366:Generated_Source\PSoC6/I2C.h **** ****************************************************************************//**
 367:Generated_Source\PSoC6/I2C.h **** *
ARM GAS  C:\Users\DWISET~1\AppData\Local\Temp\ccnysme0.s 			page 17


 368:Generated_Source\PSoC6/I2C.h **** * Invokes the Cy_SCB_I2C_SlaveGetStatus() PDL driver function.
 369:Generated_Source\PSoC6/I2C.h **** *
 370:Generated_Source\PSoC6/I2C.h **** *******************************************************************************/
 371:Generated_Source\PSoC6/I2C.h **** __STATIC_INLINE uint32_t I2C_SlaveGetStatus(void)
 372:Generated_Source\PSoC6/I2C.h **** {
 373:Generated_Source\PSoC6/I2C.h ****     return Cy_SCB_I2C_SlaveGetStatus(I2C_HW, &I2C_context);
 374:Generated_Source\PSoC6/I2C.h **** }
 375:Generated_Source\PSoC6/I2C.h **** 
 376:Generated_Source\PSoC6/I2C.h **** 
 377:Generated_Source\PSoC6/I2C.h **** /*******************************************************************************
 378:Generated_Source\PSoC6/I2C.h **** * Function Name: I2C_SlaveConfigReadBuf
 379:Generated_Source\PSoC6/I2C.h **** ****************************************************************************//**
 380:Generated_Source\PSoC6/I2C.h **** *
 381:Generated_Source\PSoC6/I2C.h **** * Invokes the Cy_SCB_I2C_SlaveConfigReadBuf() PDL driver function.
 382:Generated_Source\PSoC6/I2C.h **** *
 383:Generated_Source\PSoC6/I2C.h **** *******************************************************************************/
 384:Generated_Source\PSoC6/I2C.h **** __STATIC_INLINE void I2C_SlaveConfigReadBuf(uint8_t *buffer, uint32_t size)
 385:Generated_Source\PSoC6/I2C.h **** {
 386:Generated_Source\PSoC6/I2C.h ****     Cy_SCB_I2C_SlaveConfigReadBuf(I2C_HW, buffer, size, &I2C_context);
 387:Generated_Source\PSoC6/I2C.h **** }
 388:Generated_Source\PSoC6/I2C.h **** 
 389:Generated_Source\PSoC6/I2C.h **** 
 390:Generated_Source\PSoC6/I2C.h **** /*******************************************************************************
 391:Generated_Source\PSoC6/I2C.h **** * Function Name: I2C_SlaveAbortRead
 392:Generated_Source\PSoC6/I2C.h **** ****************************************************************************//**
 393:Generated_Source\PSoC6/I2C.h **** *
 394:Generated_Source\PSoC6/I2C.h **** * Invokes the Cy_SCB_I2C_SlaveAbortRead() PDL driver function.
 395:Generated_Source\PSoC6/I2C.h **** *
 396:Generated_Source\PSoC6/I2C.h **** *******************************************************************************/
 397:Generated_Source\PSoC6/I2C.h **** __STATIC_INLINE void I2C_SlaveAbortRead(void)
 398:Generated_Source\PSoC6/I2C.h **** {
 399:Generated_Source\PSoC6/I2C.h ****     Cy_SCB_I2C_SlaveAbortRead(I2C_HW, &I2C_context);
 400:Generated_Source\PSoC6/I2C.h **** }
 401:Generated_Source\PSoC6/I2C.h **** 
 402:Generated_Source\PSoC6/I2C.h **** 
 403:Generated_Source\PSoC6/I2C.h **** /*******************************************************************************
 404:Generated_Source\PSoC6/I2C.h **** * Function Name: I2C_SlaveGetReadTransferCount
 405:Generated_Source\PSoC6/I2C.h **** ****************************************************************************//**
 406:Generated_Source\PSoC6/I2C.h **** *
 407:Generated_Source\PSoC6/I2C.h **** * Invokes the Cy_SCB_I2C_SlaveGetReadTransferCount() PDL driver function.
 408:Generated_Source\PSoC6/I2C.h **** *
 409:Generated_Source\PSoC6/I2C.h **** *******************************************************************************/
 410:Generated_Source\PSoC6/I2C.h **** __STATIC_INLINE uint32_t I2C_SlaveGetReadTransferCount(void)
 411:Generated_Source\PSoC6/I2C.h **** {
 412:Generated_Source\PSoC6/I2C.h ****     return Cy_SCB_I2C_SlaveGetReadTransferCount(I2C_HW, &I2C_context);
 413:Generated_Source\PSoC6/I2C.h **** }
 414:Generated_Source\PSoC6/I2C.h **** 
 415:Generated_Source\PSoC6/I2C.h **** 
 416:Generated_Source\PSoC6/I2C.h **** /*******************************************************************************
 417:Generated_Source\PSoC6/I2C.h **** * Function Name: I2C_SlaveClearReadStatus
 418:Generated_Source\PSoC6/I2C.h **** ****************************************************************************//**
 419:Generated_Source\PSoC6/I2C.h **** *
 420:Generated_Source\PSoC6/I2C.h **** * Invokes the Cy_SCB_I2C_SlaveClearReadStatus() PDL driver function.
 421:Generated_Source\PSoC6/I2C.h **** *
 422:Generated_Source\PSoC6/I2C.h **** *******************************************************************************/
 423:Generated_Source\PSoC6/I2C.h **** __STATIC_INLINE uint32_t I2C_SlaveClearReadStatus(void)
 424:Generated_Source\PSoC6/I2C.h **** {
ARM GAS  C:\Users\DWISET~1\AppData\Local\Temp\ccnysme0.s 			page 18


 425:Generated_Source\PSoC6/I2C.h ****     return Cy_SCB_I2C_SlaveClearReadStatus(I2C_HW, &I2C_context);
 426:Generated_Source\PSoC6/I2C.h **** }
 427:Generated_Source\PSoC6/I2C.h **** 
 428:Generated_Source\PSoC6/I2C.h **** 
 429:Generated_Source\PSoC6/I2C.h **** /*******************************************************************************
 430:Generated_Source\PSoC6/I2C.h **** * Function Name: I2C_SlaveConfigWriteBuf
 431:Generated_Source\PSoC6/I2C.h **** ****************************************************************************//**
 432:Generated_Source\PSoC6/I2C.h **** *
 433:Generated_Source\PSoC6/I2C.h **** * Invokes the Cy_SCB_I2C_SlaveConfigWriteBuf() PDL driver function.
 434:Generated_Source\PSoC6/I2C.h **** *
 435:Generated_Source\PSoC6/I2C.h **** *******************************************************************************/
 436:Generated_Source\PSoC6/I2C.h **** __STATIC_INLINE void I2C_SlaveConfigWriteBuf(uint8_t *buffer, uint32_t size)
 437:Generated_Source\PSoC6/I2C.h **** {
 438:Generated_Source\PSoC6/I2C.h ****     Cy_SCB_I2C_SlaveConfigWriteBuf(I2C_HW, buffer, size, &I2C_context);
 439:Generated_Source\PSoC6/I2C.h **** }
 440:Generated_Source\PSoC6/I2C.h **** 
 441:Generated_Source\PSoC6/I2C.h **** 
 442:Generated_Source\PSoC6/I2C.h **** /*******************************************************************************
 443:Generated_Source\PSoC6/I2C.h **** * Function Name: I2C_SlaveAbortWrite
 444:Generated_Source\PSoC6/I2C.h **** ****************************************************************************//**
 445:Generated_Source\PSoC6/I2C.h **** *
 446:Generated_Source\PSoC6/I2C.h **** * Invokes the Cy_SCB_I2C_SlaveAbortWrite() PDL driver function.
 447:Generated_Source\PSoC6/I2C.h **** *
 448:Generated_Source\PSoC6/I2C.h **** *******************************************************************************/
 449:Generated_Source\PSoC6/I2C.h **** __STATIC_INLINE void I2C_SlaveAbortWrite(void)
 450:Generated_Source\PSoC6/I2C.h **** {
 451:Generated_Source\PSoC6/I2C.h ****     Cy_SCB_I2C_SlaveAbortWrite(I2C_HW, &I2C_context);
 452:Generated_Source\PSoC6/I2C.h **** }
 453:Generated_Source\PSoC6/I2C.h **** 
 454:Generated_Source\PSoC6/I2C.h **** 
 455:Generated_Source\PSoC6/I2C.h **** /*******************************************************************************
 456:Generated_Source\PSoC6/I2C.h **** * Function Name: I2C_SlaveGetWriteTransferCount
 457:Generated_Source\PSoC6/I2C.h **** ****************************************************************************//**
 458:Generated_Source\PSoC6/I2C.h **** *
 459:Generated_Source\PSoC6/I2C.h **** * Invokes the Cy_SCB_I2C_SlaveGetWriteTransferCount() PDL driver function.
 460:Generated_Source\PSoC6/I2C.h **** *
 461:Generated_Source\PSoC6/I2C.h **** *******************************************************************************/
 462:Generated_Source\PSoC6/I2C.h **** __STATIC_INLINE uint32_t I2C_SlaveGetWriteTransferCount(void)
 463:Generated_Source\PSoC6/I2C.h **** {
 464:Generated_Source\PSoC6/I2C.h ****     return Cy_SCB_I2C_SlaveGetWriteTransferCount(I2C_HW, &I2C_context);
 465:Generated_Source\PSoC6/I2C.h **** }
 466:Generated_Source\PSoC6/I2C.h **** 
 467:Generated_Source\PSoC6/I2C.h **** 
 468:Generated_Source\PSoC6/I2C.h **** /*******************************************************************************
 469:Generated_Source\PSoC6/I2C.h **** * Function Name: I2C_SlaveClearWriteStatus
 470:Generated_Source\PSoC6/I2C.h **** ****************************************************************************//**
 471:Generated_Source\PSoC6/I2C.h **** *
 472:Generated_Source\PSoC6/I2C.h **** * Invokes the Cy_SCB_I2C_SlaveClearWriteStatus() PDL driver function.
 473:Generated_Source\PSoC6/I2C.h **** *
 474:Generated_Source\PSoC6/I2C.h **** *******************************************************************************/
 475:Generated_Source\PSoC6/I2C.h **** __STATIC_INLINE uint32_t I2C_SlaveClearWriteStatus(void)
 476:Generated_Source\PSoC6/I2C.h **** {
 477:Generated_Source\PSoC6/I2C.h ****     return Cy_SCB_I2C_SlaveClearWriteStatus(I2C_HW, &I2C_context);
 478:Generated_Source\PSoC6/I2C.h **** }
 479:Generated_Source\PSoC6/I2C.h **** #endif /* (I2C_ENABLE_SLAVE) */
 480:Generated_Source\PSoC6/I2C.h **** 
 481:Generated_Source\PSoC6/I2C.h **** 
ARM GAS  C:\Users\DWISET~1\AppData\Local\Temp\ccnysme0.s 			page 19


 482:Generated_Source\PSoC6/I2C.h **** #if (I2C_ENABLE_MASTER)
 483:Generated_Source\PSoC6/I2C.h **** /*******************************************************************************
 484:Generated_Source\PSoC6/I2C.h **** * Function Name: I2C_MasterGetStatus
 485:Generated_Source\PSoC6/I2C.h **** ****************************************************************************//**
 486:Generated_Source\PSoC6/I2C.h **** *
 487:Generated_Source\PSoC6/I2C.h **** * Invokes the Cy_SCB_I2C_MasterGetStatus() PDL driver function.
 488:Generated_Source\PSoC6/I2C.h **** *
 489:Generated_Source\PSoC6/I2C.h **** *******************************************************************************/
 490:Generated_Source\PSoC6/I2C.h **** __STATIC_INLINE uint32_t I2C_MasterGetStatus(void)
 491:Generated_Source\PSoC6/I2C.h **** {
 492:Generated_Source\PSoC6/I2C.h ****     return Cy_SCB_I2C_MasterGetStatus(I2C_HW, &I2C_context);
 493:Generated_Source\PSoC6/I2C.h **** }
 494:Generated_Source\PSoC6/I2C.h **** 
 495:Generated_Source\PSoC6/I2C.h **** 
 496:Generated_Source\PSoC6/I2C.h **** /*******************************************************************************
 497:Generated_Source\PSoC6/I2C.h **** * Function Name: I2C_MasterRead
 498:Generated_Source\PSoC6/I2C.h **** ****************************************************************************//**
 499:Generated_Source\PSoC6/I2C.h **** *
 500:Generated_Source\PSoC6/I2C.h **** * Invokes the Cy_SCB_I2C_MasterRead() PDL driver function.
 501:Generated_Source\PSoC6/I2C.h **** *
 502:Generated_Source\PSoC6/I2C.h **** *******************************************************************************/
 503:Generated_Source\PSoC6/I2C.h **** __STATIC_INLINE cy_en_scb_i2c_status_t I2C_MasterRead(cy_stc_scb_i2c_master_xfer_config_t *xferConf
 504:Generated_Source\PSoC6/I2C.h **** {
 505:Generated_Source\PSoC6/I2C.h ****     return Cy_SCB_I2C_MasterRead(I2C_HW, xferConfig, &I2C_context);
 506:Generated_Source\PSoC6/I2C.h **** }
 507:Generated_Source\PSoC6/I2C.h **** 
 508:Generated_Source\PSoC6/I2C.h **** 
 509:Generated_Source\PSoC6/I2C.h **** /*******************************************************************************
 510:Generated_Source\PSoC6/I2C.h **** * Function Name: I2C_MasterAbortRead
 511:Generated_Source\PSoC6/I2C.h **** ****************************************************************************//**
 512:Generated_Source\PSoC6/I2C.h **** *
 513:Generated_Source\PSoC6/I2C.h **** * Invokes the Cy_SCB_I2C_MasterAbortRead() PDL driver function.
 514:Generated_Source\PSoC6/I2C.h **** *
 515:Generated_Source\PSoC6/I2C.h **** ******************************************************************************/
 516:Generated_Source\PSoC6/I2C.h **** __STATIC_INLINE void I2C_MasterAbortRead(void)
 517:Generated_Source\PSoC6/I2C.h **** {
 518:Generated_Source\PSoC6/I2C.h ****     Cy_SCB_I2C_MasterAbortRead(I2C_HW, &I2C_context);
 519:Generated_Source\PSoC6/I2C.h **** }
 520:Generated_Source\PSoC6/I2C.h **** 
 521:Generated_Source\PSoC6/I2C.h **** 
 522:Generated_Source\PSoC6/I2C.h **** /*******************************************************************************
 523:Generated_Source\PSoC6/I2C.h **** * Function Name: I2C_MasterWrite
 524:Generated_Source\PSoC6/I2C.h **** ****************************************************************************//**
 525:Generated_Source\PSoC6/I2C.h **** *
 526:Generated_Source\PSoC6/I2C.h **** * Invokes the Cy_SCB_I2C_MasterWrite() PDL driver function.
 527:Generated_Source\PSoC6/I2C.h **** *
 528:Generated_Source\PSoC6/I2C.h **** *******************************************************************************/
 529:Generated_Source\PSoC6/I2C.h **** __STATIC_INLINE cy_en_scb_i2c_status_t I2C_MasterWrite(cy_stc_scb_i2c_master_xfer_config_t *xferCon
 530:Generated_Source\PSoC6/I2C.h **** {
 531:Generated_Source\PSoC6/I2C.h ****     return Cy_SCB_I2C_MasterWrite(I2C_HW, xferConfig, &I2C_context);
 532:Generated_Source\PSoC6/I2C.h **** }
 533:Generated_Source\PSoC6/I2C.h **** 
 534:Generated_Source\PSoC6/I2C.h **** 
 535:Generated_Source\PSoC6/I2C.h **** /*******************************************************************************
 536:Generated_Source\PSoC6/I2C.h **** * Function Name: I2C_MasterAbortWrite
 537:Generated_Source\PSoC6/I2C.h **** ****************************************************************************//**
 538:Generated_Source\PSoC6/I2C.h **** *
ARM GAS  C:\Users\DWISET~1\AppData\Local\Temp\ccnysme0.s 			page 20


 539:Generated_Source\PSoC6/I2C.h **** * Invokes the Cy_SCB_I2C_MasterAbortWrite() PDL driver function.
 540:Generated_Source\PSoC6/I2C.h **** *
 541:Generated_Source\PSoC6/I2C.h **** *******************************************************************************/
 542:Generated_Source\PSoC6/I2C.h **** __STATIC_INLINE void I2C_MasterAbortWrite(void)
 543:Generated_Source\PSoC6/I2C.h **** {
 544:Generated_Source\PSoC6/I2C.h ****     Cy_SCB_I2C_MasterAbortWrite(I2C_HW, &I2C_context);
 545:Generated_Source\PSoC6/I2C.h **** }
 546:Generated_Source\PSoC6/I2C.h **** 
 547:Generated_Source\PSoC6/I2C.h **** 
 548:Generated_Source\PSoC6/I2C.h **** /*******************************************************************************
 549:Generated_Source\PSoC6/I2C.h **** * Function Name: I2C_MasterGetTransferCount
 550:Generated_Source\PSoC6/I2C.h **** ****************************************************************************//**
 551:Generated_Source\PSoC6/I2C.h **** *
 552:Generated_Source\PSoC6/I2C.h **** * Invokes the Cy_SCB_I2C_MasterGetTransferCount() PDL driver function.
 553:Generated_Source\PSoC6/I2C.h **** *
 554:Generated_Source\PSoC6/I2C.h **** *******************************************************************************/
 555:Generated_Source\PSoC6/I2C.h **** __STATIC_INLINE uint32_t I2C_MasterGetTransferCount(void)
 556:Generated_Source\PSoC6/I2C.h **** {
 557:Generated_Source\PSoC6/I2C.h ****     return Cy_SCB_I2C_MasterGetTransferCount(I2C_HW, &I2C_context);
 558:Generated_Source\PSoC6/I2C.h **** }
 559:Generated_Source\PSoC6/I2C.h **** 
 560:Generated_Source\PSoC6/I2C.h **** 
 561:Generated_Source\PSoC6/I2C.h **** /*******************************************************************************
 562:Generated_Source\PSoC6/I2C.h **** * Function Name: I2C_MasterSendStart
 563:Generated_Source\PSoC6/I2C.h **** ****************************************************************************//**
 564:Generated_Source\PSoC6/I2C.h **** *
 565:Generated_Source\PSoC6/I2C.h **** * Invokes the Cy_SCB_I2C_MasterSendStart() PDL driver function.
 566:Generated_Source\PSoC6/I2C.h **** *
 567:Generated_Source\PSoC6/I2C.h **** *******************************************************************************/
 568:Generated_Source\PSoC6/I2C.h **** __STATIC_INLINE cy_en_scb_i2c_status_t I2C_MasterSendStart(uint32_t address, cy_en_scb_i2c_directio
 569:Generated_Source\PSoC6/I2C.h **** {
 570:Generated_Source\PSoC6/I2C.h ****     return Cy_SCB_I2C_MasterSendStart(I2C_HW, address, bitRnW, timeoutMs, &I2C_context);
 343              		.loc 2 570 0
 344 000a 0D4B     		ldr	r3, .L40
 345 000c 0093     		str	r3, [sp]
 346 000e 1346     		mov	r3, r2
 347 0010 0022     		movs	r2, #0
 348              	.LVL42:
 349 0012 7621     		movs	r1, #118
 350              	.LVL43:
 351 0014 0B48     		ldr	r0, .L40+4
 352              	.LVL44:
 353 0016 FFF7FEFF 		bl	Cy_SCB_I2C_MasterSendStart
 354              	.LVL45:
 355              	.LBE69:
 356              	.LBE68:
 357              	.LBB70:
 194:main_cm4.c    ****     cy_en_scb_i2c_status_t status;
 195:main_cm4.c    ****     I2C_MasterSendStart(BMP280_ADDR,CY_SCB_I2C_WRITE_XFER,timeout);
 196:main_cm4.c    ****     for(uint8_t i = 0; i<dataLen; i++)
 358              		.loc 1 196 0
 359 001a 0024     		movs	r4, #0
 360 001c 07E0     		b	.L37
 361              	.LVL46:
 362              	.L38:
 363              	.LBB71:
 364              	.LBB72:
ARM GAS  C:\Users\DWISET~1\AppData\Local\Temp\ccnysme0.s 			page 21


 571:Generated_Source\PSoC6/I2C.h **** }
 572:Generated_Source\PSoC6/I2C.h **** 
 573:Generated_Source\PSoC6/I2C.h **** 
 574:Generated_Source\PSoC6/I2C.h **** /*******************************************************************************
 575:Generated_Source\PSoC6/I2C.h **** * Function Name: I2C_MasterSendReStart
 576:Generated_Source\PSoC6/I2C.h **** ****************************************************************************//**
 577:Generated_Source\PSoC6/I2C.h **** *
 578:Generated_Source\PSoC6/I2C.h **** * Invokes the Cy_SCB_I2C_MasterSendReStart() PDL driver function.
 579:Generated_Source\PSoC6/I2C.h **** *
 580:Generated_Source\PSoC6/I2C.h **** *******************************************************************************/
 581:Generated_Source\PSoC6/I2C.h **** __STATIC_INLINE cy_en_scb_i2c_status_t I2C_MasterSendReStart(uint32_t address, cy_en_scb_i2c_direct
 582:Generated_Source\PSoC6/I2C.h **** {
 583:Generated_Source\PSoC6/I2C.h ****     return Cy_SCB_I2C_MasterSendReStart(I2C_HW, address, bitRnW, timeoutMs, &I2C_context);
 584:Generated_Source\PSoC6/I2C.h **** }
 585:Generated_Source\PSoC6/I2C.h **** 
 586:Generated_Source\PSoC6/I2C.h **** 
 587:Generated_Source\PSoC6/I2C.h **** /*******************************************************************************
 588:Generated_Source\PSoC6/I2C.h **** * Function Name: I2C_MasterSendStop
 589:Generated_Source\PSoC6/I2C.h **** ****************************************************************************//**
 590:Generated_Source\PSoC6/I2C.h **** *
 591:Generated_Source\PSoC6/I2C.h **** * Invokes the Cy_SCB_I2C_MasterSendStop() PDL driver function.
 592:Generated_Source\PSoC6/I2C.h **** *
 593:Generated_Source\PSoC6/I2C.h **** *******************************************************************************/
 594:Generated_Source\PSoC6/I2C.h **** __STATIC_INLINE cy_en_scb_i2c_status_t I2C_MasterSendStop(uint32_t timeoutMs)
 595:Generated_Source\PSoC6/I2C.h **** {
 596:Generated_Source\PSoC6/I2C.h ****     return Cy_SCB_I2C_MasterSendStop(I2C_HW, timeoutMs, &I2C_context);
 597:Generated_Source\PSoC6/I2C.h **** }
 598:Generated_Source\PSoC6/I2C.h **** 
 599:Generated_Source\PSoC6/I2C.h **** 
 600:Generated_Source\PSoC6/I2C.h **** /*******************************************************************************
 601:Generated_Source\PSoC6/I2C.h **** * Function Name: I2C_MasterReadByte
 602:Generated_Source\PSoC6/I2C.h **** ****************************************************************************//**
 603:Generated_Source\PSoC6/I2C.h **** *
 604:Generated_Source\PSoC6/I2C.h **** * Invokes the Cy_SCB_I2C_MasterReadByte() PDL driver function.
 605:Generated_Source\PSoC6/I2C.h **** *
 606:Generated_Source\PSoC6/I2C.h **** *******************************************************************************/
 607:Generated_Source\PSoC6/I2C.h **** __STATIC_INLINE cy_en_scb_i2c_status_t I2C_MasterReadByte(cy_en_scb_i2c_command_t ackNack, uint8_t 
 608:Generated_Source\PSoC6/I2C.h **** {
 609:Generated_Source\PSoC6/I2C.h ****     return Cy_SCB_I2C_MasterReadByte(I2C_HW, ackNack, byte, timeoutMs, &I2C_context);
 610:Generated_Source\PSoC6/I2C.h **** }
 611:Generated_Source\PSoC6/I2C.h **** 
 612:Generated_Source\PSoC6/I2C.h **** 
 613:Generated_Source\PSoC6/I2C.h **** /*******************************************************************************
 614:Generated_Source\PSoC6/I2C.h **** * Function Name: I2C_MasterWriteByte
 615:Generated_Source\PSoC6/I2C.h **** ****************************************************************************//**
 616:Generated_Source\PSoC6/I2C.h **** *
 617:Generated_Source\PSoC6/I2C.h **** * Invokes the Cy_SCB_I2C_MasterWriteByte() PDL driver function.
 618:Generated_Source\PSoC6/I2C.h **** *
 619:Generated_Source\PSoC6/I2C.h **** *******************************************************************************/
 620:Generated_Source\PSoC6/I2C.h **** __STATIC_INLINE cy_en_scb_i2c_status_t I2C_MasterWriteByte(uint8_t byte, uint32_t timeoutMs)
 621:Generated_Source\PSoC6/I2C.h **** {
 622:Generated_Source\PSoC6/I2C.h ****     return Cy_SCB_I2C_MasterWriteByte(I2C_HW, byte, timeoutMs, &I2C_context);
 365              		.loc 2 622 0 discriminator 3
 366 001e 084B     		ldr	r3, .L40
 367 0020 2A46     		mov	r2, r5
 368 0022 395D     		ldrb	r1, [r7, r4]	@ zero_extendqisi2
 369 0024 0748     		ldr	r0, .L40+4
ARM GAS  C:\Users\DWISET~1\AppData\Local\Temp\ccnysme0.s 			page 22


 370 0026 FFF7FEFF 		bl	Cy_SCB_I2C_MasterWriteByte
 371              	.LVL47:
 372              	.LBE72:
 373              	.LBE71:
 374              		.loc 1 196 0 discriminator 3
 375 002a 0134     		adds	r4, r4, #1
 376              	.LVL48:
 377 002c E4B2     		uxtb	r4, r4
 378              	.LVL49:
 379              	.L37:
 380              		.loc 1 196 0 is_stmt 0 discriminator 1
 381 002e B442     		cmp	r4, r6
 382 0030 F5D3     		bcc	.L38
 383              	.LVL50:
 384              	.LBE70:
 385              	.LBB73:
 386              	.LBB74:
 596:Generated_Source\PSoC6/I2C.h **** }
 387              		.loc 2 596 0 is_stmt 1
 388 0032 034A     		ldr	r2, .L40
 389 0034 6421     		movs	r1, #100
 390 0036 0348     		ldr	r0, .L40+4
 391 0038 FFF7FEFF 		bl	Cy_SCB_I2C_MasterSendStop
 392              	.LVL51:
 393              	.LBE74:
 394              	.LBE73:
 197:main_cm4.c    ****         status |= I2C_MasterWriteByte(data[i], timeout);
 198:main_cm4.c    ****     status = I2C_MasterSendStop(100);
 199:main_cm4.c    ****     return status;
 200:main_cm4.c    **** }
 395              		.loc 1 200 0
 396 003c 03B0     		add	sp, sp, #12
 397              		.cfi_def_cfa_offset 20
 398              		@ sp needed
 399 003e F0BD     		pop	{r4, r5, r6, r7, pc}
 400              	.LVL52:
 401              	.L41:
 402              		.align	2
 403              	.L40:
 404 0040 00000000 		.word	I2C_context
 405 0044 00006740 		.word	1080492032
 406              		.cfi_endproc
 407              	.LFE512:
 408              		.size	bmp_write_bytes, .-bmp_write_bytes
 409              		.section	.text.bmp_write_byte,"ax",%progbits
 410              		.align	2
 411              		.global	bmp_write_byte
 412              		.thumb
 413              		.thumb_func
 414              		.type	bmp_write_byte, %function
 415              	bmp_write_byte:
 416              	.LFB513:
 201:main_cm4.c    **** 
 202:main_cm4.c    **** cy_en_scb_i2c_status_t bmp_write_byte(uint8_t reg, uint8_t data, uint32_t timeout)
 203:main_cm4.c    **** {
 417              		.loc 1 203 0
 418              		.cfi_startproc
ARM GAS  C:\Users\DWISET~1\AppData\Local\Temp\ccnysme0.s 			page 23


 419              		@ args = 0, pretend = 0, frame = 0
 420              		@ frame_needed = 0, uses_anonymous_args = 0
 421              	.LVL53:
 422 0000 2DE9F041 		push	{r4, r5, r6, r7, r8, lr}
 423              		.cfi_def_cfa_offset 24
 424              		.cfi_offset 4, -24
 425              		.cfi_offset 5, -20
 426              		.cfi_offset 6, -16
 427              		.cfi_offset 7, -12
 428              		.cfi_offset 8, -8
 429              		.cfi_offset 14, -4
 430 0004 82B0     		sub	sp, sp, #8
 431              		.cfi_def_cfa_offset 32
 432 0006 0746     		mov	r7, r0
 433 0008 8846     		mov	r8, r1
 434 000a 1446     		mov	r4, r2
 435              	.LVL54:
 436              	.LBB75:
 437              	.LBB76:
 570:Generated_Source\PSoC6/I2C.h **** }
 438              		.loc 2 570 0
 439 000c 0E4D     		ldr	r5, .L45
 440 000e 0F4E     		ldr	r6, .L45+4
 441 0010 0096     		str	r6, [sp]
 442 0012 1346     		mov	r3, r2
 443 0014 0022     		movs	r2, #0
 444              	.LVL55:
 445 0016 7621     		movs	r1, #118
 446              	.LVL56:
 447 0018 2846     		mov	r0, r5
 448              	.LVL57:
 449 001a FFF7FEFF 		bl	Cy_SCB_I2C_MasterSendStart
 450              	.LVL58:
 451              	.LBE76:
 452              	.LBE75:
 453              	.LBB77:
 454              	.LBB78:
 455              		.loc 2 622 0
 456 001e 3346     		mov	r3, r6
 457 0020 2246     		mov	r2, r4
 458 0022 3946     		mov	r1, r7
 459 0024 2846     		mov	r0, r5
 460 0026 FFF7FEFF 		bl	Cy_SCB_I2C_MasterWriteByte
 461              	.LVL59:
 462              	.LBE78:
 463              	.LBE77:
 204:main_cm4.c    ****     cy_en_scb_i2c_status_t status;
 205:main_cm4.c    ****     I2C_MasterSendStart(BMP280_ADDR,CY_SCB_I2C_WRITE_XFER,timeout);
 206:main_cm4.c    ****     if( CY_SCB_I2C_SUCCESS == I2C_MasterWriteByte(reg, timeout))
 464              		.loc 1 206 0
 465 002a 28B9     		cbnz	r0, .L43
 466              	.LVL60:
 467              	.LBB79:
 468              	.LBB80:
 469              		.loc 2 622 0
 470 002c 3346     		mov	r3, r6
 471 002e 2246     		mov	r2, r4
ARM GAS  C:\Users\DWISET~1\AppData\Local\Temp\ccnysme0.s 			page 24


 472 0030 4146     		mov	r1, r8
 473 0032 2846     		mov	r0, r5
 474 0034 FFF7FEFF 		bl	Cy_SCB_I2C_MasterWriteByte
 475              	.LVL61:
 476              	.L43:
 477              	.LBE80:
 478              	.LBE79:
 479              	.LBB81:
 480              	.LBB82:
 596:Generated_Source\PSoC6/I2C.h **** }
 481              		.loc 2 596 0
 482 0038 044A     		ldr	r2, .L45+4
 483 003a 6421     		movs	r1, #100
 484 003c 0248     		ldr	r0, .L45
 485 003e FFF7FEFF 		bl	Cy_SCB_I2C_MasterSendStop
 486              	.LVL62:
 487              	.LBE82:
 488              	.LBE81:
 207:main_cm4.c    ****     {
 208:main_cm4.c    ****         status = I2C_MasterWriteByte(data, timeout);
 209:main_cm4.c    ****     }
 210:main_cm4.c    ****     status = I2C_MasterSendStop(100);
 211:main_cm4.c    ****     return status;
 212:main_cm4.c    **** }
 489              		.loc 1 212 0
 490 0042 02B0     		add	sp, sp, #8
 491              		.cfi_def_cfa_offset 24
 492              		@ sp needed
 493 0044 BDE8F081 		pop	{r4, r5, r6, r7, r8, pc}
 494              	.LVL63:
 495              	.L46:
 496              		.align	2
 497              	.L45:
 498 0048 00006740 		.word	1080492032
 499 004c 00000000 		.word	I2C_context
 500              		.cfi_endproc
 501              	.LFE513:
 502              		.size	bmp_write_byte, .-bmp_write_byte
 503              		.section	.text.bmp_read_bytes,"ax",%progbits
 504              		.align	2
 505              		.global	bmp_read_bytes
 506              		.thumb
 507              		.thumb_func
 508              		.type	bmp_read_bytes, %function
 509              	bmp_read_bytes:
 510              	.LFB514:
 213:main_cm4.c    **** 
 214:main_cm4.c    **** cy_en_scb_i2c_status_t bmp_read_bytes(uint8_t reg, uint8_t *val, uint8_t dataLen, uint32_t timeout)
 215:main_cm4.c    **** {
 511              		.loc 1 215 0
 512              		.cfi_startproc
 513              		@ args = 0, pretend = 0, frame = 0
 514              		@ frame_needed = 0, uses_anonymous_args = 0
 515              	.LVL64:
 516 0000 2DE9F043 		push	{r4, r5, r6, r7, r8, r9, lr}
 517              		.cfi_def_cfa_offset 28
 518              		.cfi_offset 4, -28
ARM GAS  C:\Users\DWISET~1\AppData\Local\Temp\ccnysme0.s 			page 25


 519              		.cfi_offset 5, -24
 520              		.cfi_offset 6, -20
 521              		.cfi_offset 7, -16
 522              		.cfi_offset 8, -12
 523              		.cfi_offset 9, -8
 524              		.cfi_offset 14, -4
 525 0004 83B0     		sub	sp, sp, #12
 526              		.cfi_def_cfa_offset 40
 527 0006 8146     		mov	r9, r0
 528 0008 0D46     		mov	r5, r1
 529 000a 9046     		mov	r8, r2
 530 000c 1F46     		mov	r7, r3
 531              	.LVL65:
 532              	.LBB83:
 533              	.LBB84:
 570:Generated_Source\PSoC6/I2C.h **** }
 534              		.loc 2 570 0
 535 000e 1C4C     		ldr	r4, .L52
 536 0010 1C4E     		ldr	r6, .L52+4
 537 0012 0096     		str	r6, [sp]
 538 0014 0022     		movs	r2, #0
 539              	.LVL66:
 540 0016 7621     		movs	r1, #118
 541              	.LVL67:
 542 0018 2046     		mov	r0, r4
 543              	.LVL68:
 544 001a FFF7FEFF 		bl	Cy_SCB_I2C_MasterSendStart
 545              	.LVL69:
 546              	.LBE84:
 547              	.LBE83:
 548              	.LBB85:
 549              	.LBB86:
 550              		.loc 2 622 0
 551 001e 3346     		mov	r3, r6
 552 0020 3A46     		mov	r2, r7
 553 0022 4946     		mov	r1, r9
 554 0024 2046     		mov	r0, r4
 555 0026 FFF7FEFF 		bl	Cy_SCB_I2C_MasterWriteByte
 556              	.LVL70:
 557              	.LBE86:
 558              	.LBE85:
 216:main_cm4.c    ****     cy_en_scb_i2c_status_t status;
 217:main_cm4.c    ****     uint8_t buff=0;
 218:main_cm4.c    ****     I2C_MasterSendStart(BMP280_ADDR,CY_SCB_I2C_WRITE_XFER,timeout);
 219:main_cm4.c    ****     if( CY_SCB_I2C_SUCCESS == I2C_MasterWriteByte(reg, timeout) )
 559              		.loc 1 219 0
 560 002a 00BB     		cbnz	r0, .L48
 561              	.LVL71:
 562              	.LBB87:
 563              	.LBB88:
 583:Generated_Source\PSoC6/I2C.h **** }
 564              		.loc 2 583 0
 565 002c 0096     		str	r6, [sp]
 566 002e 3B46     		mov	r3, r7
 567 0030 0122     		movs	r2, #1
 568 0032 7621     		movs	r1, #118
 569 0034 2046     		mov	r0, r4
ARM GAS  C:\Users\DWISET~1\AppData\Local\Temp\ccnysme0.s 			page 26


 570 0036 FFF7FEFF 		bl	Cy_SCB_I2C_MasterSendReStart
 571              	.LVL72:
 572              	.LBE88:
 573              	.LBE87:
 574              	.LBB89:
 220:main_cm4.c    ****     {
 221:main_cm4.c    ****         I2C_MasterSendReStart(BMP280_ADDR,CY_SCB_I2C_READ_XFER,timeout);
 222:main_cm4.c    ****         for( uint8_t i = 0; i< dataLen-1; i++)
 575              		.loc 1 222 0
 576 003a 0024     		movs	r4, #0
 577 003c 0BE0     		b	.L49
 578              	.LVL73:
 579              	.L50:
 223:main_cm4.c    ****              I2C_MasterReadByte(CY_SCB_I2C_ACK, val++, timeout);
 580              		.loc 1 223 0 discriminator 3
 581 003e 6E1C     		adds	r6, r5, #1
 582              	.LVL74:
 583              	.LBB90:
 584              	.LBB91:
 609:Generated_Source\PSoC6/I2C.h **** }
 585              		.loc 2 609 0 discriminator 3
 586 0040 104B     		ldr	r3, .L52+4
 587 0042 0093     		str	r3, [sp]
 588 0044 3B46     		mov	r3, r7
 589 0046 2A46     		mov	r2, r5
 590 0048 0021     		movs	r1, #0
 591 004a 0D48     		ldr	r0, .L52
 592 004c FFF7FEFF 		bl	Cy_SCB_I2C_MasterReadByte
 593              	.LVL75:
 594              	.LBE91:
 595              	.LBE90:
 222:main_cm4.c    ****              I2C_MasterReadByte(CY_SCB_I2C_ACK, val++, timeout);
 596              		.loc 1 222 0 discriminator 3
 597 0050 0134     		adds	r4, r4, #1
 598              	.LVL76:
 599 0052 E4B2     		uxtb	r4, r4
 600              	.LVL77:
 601              		.loc 1 223 0 discriminator 3
 602 0054 3546     		mov	r5, r6
 603              	.LVL78:
 604              	.L49:
 222:main_cm4.c    ****              I2C_MasterReadByte(CY_SCB_I2C_ACK, val++, timeout);
 605              		.loc 1 222 0 discriminator 1
 606 0056 08F1FF33 		add	r3, r8, #-1
 607 005a 9C42     		cmp	r4, r3
 608 005c EFDB     		blt	.L50
 609              	.LVL79:
 610              	.LBE89:
 611              	.LBB92:
 612              	.LBB93:
 609:Generated_Source\PSoC6/I2C.h **** }
 613              		.loc 2 609 0
 614 005e 094B     		ldr	r3, .L52+4
 615 0060 0093     		str	r3, [sp]
 616 0062 3B46     		mov	r3, r7
 617 0064 2A46     		mov	r2, r5
 618 0066 0121     		movs	r1, #1
ARM GAS  C:\Users\DWISET~1\AppData\Local\Temp\ccnysme0.s 			page 27


 619 0068 0548     		ldr	r0, .L52
 620 006a FFF7FEFF 		bl	Cy_SCB_I2C_MasterReadByte
 621              	.LVL80:
 622              	.L48:
 623              	.LBE93:
 624              	.LBE92:
 625              	.LBB94:
 626              	.LBB95:
 596:Generated_Source\PSoC6/I2C.h **** }
 627              		.loc 2 596 0
 628 006e 054A     		ldr	r2, .L52+4
 629 0070 3946     		mov	r1, r7
 630 0072 0348     		ldr	r0, .L52
 631 0074 FFF7FEFF 		bl	Cy_SCB_I2C_MasterSendStop
 632              	.LVL81:
 633              	.LBE95:
 634              	.LBE94:
 224:main_cm4.c    ****         I2C_MasterReadByte(CY_SCB_I2C_NAK, val, timeout);
 225:main_cm4.c    ****     }
 226:main_cm4.c    ****     status = I2C_MasterSendStop(timeout);
 227:main_cm4.c    ****     return CY_SCB_I2C_SUCCESS;
 228:main_cm4.c    **** }
 635              		.loc 1 228 0
 636 0078 0020     		movs	r0, #0
 637 007a 03B0     		add	sp, sp, #12
 638              		.cfi_def_cfa_offset 28
 639              		@ sp needed
 640 007c BDE8F083 		pop	{r4, r5, r6, r7, r8, r9, pc}
 641              	.LVL82:
 642              	.L53:
 643              		.align	2
 644              	.L52:
 645 0080 00006740 		.word	1080492032
 646 0084 00000000 		.word	I2C_context
 647              		.cfi_endproc
 648              	.LFE514:
 649              		.size	bmp_read_bytes, .-bmp_read_bytes
 650              		.section	.text.bmp_read_byte,"ax",%progbits
 651              		.align	2
 652              		.global	bmp_read_byte
 653              		.thumb
 654              		.thumb_func
 655              		.type	bmp_read_byte, %function
 656              	bmp_read_byte:
 657              	.LFB515:
 229:main_cm4.c    **** 
 230:main_cm4.c    **** cy_en_scb_i2c_status_t bmp_read_byte(uint8_t reg, uint8_t *val, uint32_t timeout)
 231:main_cm4.c    **** {
 658              		.loc 1 231 0
 659              		.cfi_startproc
 660              		@ args = 0, pretend = 0, frame = 0
 661              		@ frame_needed = 0, uses_anonymous_args = 0
 662              	.LVL83:
 663 0000 2DE9F043 		push	{r4, r5, r6, r7, r8, r9, lr}
 664              		.cfi_def_cfa_offset 28
 665              		.cfi_offset 4, -28
 666              		.cfi_offset 5, -24
ARM GAS  C:\Users\DWISET~1\AppData\Local\Temp\ccnysme0.s 			page 28


 667              		.cfi_offset 6, -20
 668              		.cfi_offset 7, -16
 669              		.cfi_offset 8, -12
 670              		.cfi_offset 9, -8
 671              		.cfi_offset 14, -4
 672 0004 83B0     		sub	sp, sp, #12
 673              		.cfi_def_cfa_offset 40
 674 0006 0746     		mov	r7, r0
 675 0008 8946     		mov	r9, r1
 676 000a 1446     		mov	r4, r2
 677              	.LVL84:
 678              	.LBB96:
 679              	.LBB97:
 570:Generated_Source\PSoC6/I2C.h **** }
 680              		.loc 2 570 0
 681 000c 144D     		ldr	r5, .L57
 682 000e 154E     		ldr	r6, .L57+4
 683 0010 0096     		str	r6, [sp]
 684 0012 1346     		mov	r3, r2
 685 0014 0022     		movs	r2, #0
 686              	.LVL85:
 687 0016 7621     		movs	r1, #118
 688              	.LVL86:
 689 0018 2846     		mov	r0, r5
 690              	.LVL87:
 691 001a FFF7FEFF 		bl	Cy_SCB_I2C_MasterSendStart
 692              	.LVL88:
 693              	.LBE97:
 694              	.LBE96:
 695              	.LBB98:
 696              	.LBB99:
 697              		.loc 2 622 0
 698 001e 3346     		mov	r3, r6
 699 0020 2246     		mov	r2, r4
 700 0022 3946     		mov	r1, r7
 701 0024 2846     		mov	r0, r5
 702 0026 FFF7FEFF 		bl	Cy_SCB_I2C_MasterWriteByte
 703              	.LVL89:
 704              	.LBE99:
 705              	.LBE98:
 232:main_cm4.c    ****     cy_en_scb_i2c_status_t status;
 233:main_cm4.c    ****     uint8_t buff=0;
 234:main_cm4.c    ****     I2C_MasterSendStart(BMP280_ADDR,CY_SCB_I2C_WRITE_XFER,timeout);
 235:main_cm4.c    ****     if( CY_SCB_I2C_SUCCESS == I2C_MasterWriteByte(reg, timeout) )
 706              		.loc 1 235 0
 707 002a 70B9     		cbnz	r0, .L55
 708              	.LVL90:
 709              	.LBB100:
 710              	.LBB101:
 583:Generated_Source\PSoC6/I2C.h **** }
 711              		.loc 2 583 0
 712 002c 0096     		str	r6, [sp]
 713 002e 2346     		mov	r3, r4
 714 0030 0122     		movs	r2, #1
 715 0032 7621     		movs	r1, #118
 716 0034 2846     		mov	r0, r5
 717 0036 FFF7FEFF 		bl	Cy_SCB_I2C_MasterSendReStart
ARM GAS  C:\Users\DWISET~1\AppData\Local\Temp\ccnysme0.s 			page 29


 718              	.LVL91:
 719              	.LBE101:
 720              	.LBE100:
 721              	.LBB102:
 722              	.LBB103:
 609:Generated_Source\PSoC6/I2C.h **** }
 723              		.loc 2 609 0
 724 003a 0096     		str	r6, [sp]
 725 003c 2346     		mov	r3, r4
 726 003e 4A46     		mov	r2, r9
 727 0040 0121     		movs	r1, #1
 728 0042 2846     		mov	r0, r5
 729 0044 FFF7FEFF 		bl	Cy_SCB_I2C_MasterReadByte
 730              	.LVL92:
 731 0048 8046     		mov	r8, r0
 732              	.LVL93:
 733              	.L55:
 734              	.LBE103:
 735              	.LBE102:
 736              	.LBB104:
 737              	.LBB105:
 596:Generated_Source\PSoC6/I2C.h **** }
 738              		.loc 2 596 0
 739 004a 064A     		ldr	r2, .L57+4
 740 004c 2146     		mov	r1, r4
 741 004e 0448     		ldr	r0, .L57
 742 0050 FFF7FEFF 		bl	Cy_SCB_I2C_MasterSendStop
 743              	.LVL94:
 744              	.LBE105:
 745              	.LBE104:
 236:main_cm4.c    ****     {
 237:main_cm4.c    ****         I2C_MasterSendReStart(BMP280_ADDR,CY_SCB_I2C_READ_XFER,timeout);
 238:main_cm4.c    ****         status = I2C_MasterReadByte(CY_SCB_I2C_NAK, val, timeout);
 239:main_cm4.c    ****     }
 240:main_cm4.c    ****     status |= I2C_MasterSendStop(timeout);
 241:main_cm4.c    ****     return status;
 242:main_cm4.c    **** }
 746              		.loc 1 242 0
 747 0054 48EA0000 		orr	r0, r8, r0
 748              	.LVL95:
 749 0058 03B0     		add	sp, sp, #12
 750              		.cfi_def_cfa_offset 28
 751              		@ sp needed
 752 005a BDE8F083 		pop	{r4, r5, r6, r7, r8, r9, pc}
 753              	.LVL96:
 754              	.L58:
 755 005e 00BF     		.align	2
 756              	.L57:
 757 0060 00006740 		.word	1080492032
 758 0064 00000000 		.word	I2C_context
 759              		.cfi_endproc
 760              	.LFE515:
 761              		.size	bmp_read_byte, .-bmp_read_byte
 762              		.section	.text.config_get,"ax",%progbits
 763              		.align	2
 764              		.global	config_get
 765              		.thumb
ARM GAS  C:\Users\DWISET~1\AppData\Local\Temp\ccnysme0.s 			page 30


 766              		.thumb_func
 767              		.type	config_get, %function
 768              	config_get:
 769              	.LFB516:
 243:main_cm4.c    **** 
 244:main_cm4.c    **** unsigned int config_get(config_t cfg){ 
 770              		.loc 1 244 0
 771              		.cfi_startproc
 772              		@ args = 0, pretend = 0, frame = 0
 773              		@ frame_needed = 0, uses_anonymous_args = 0
 774              		@ link register save eliminated.
 775              	.LVL97:
 245:main_cm4.c    ****     return (cfg.t_sb << 5) | (cfg.filter << 2) | cfg.spi3w_en; 
 776              		.loc 1 245 0
 777 0000 00F00702 		and	r2, r0, #7
 778 0004 C0F3C203 		ubfx	r3, r0, #3, #3
 779 0008 9B00     		lsls	r3, r3, #2
 780 000a 43EA4213 		orr	r3, r3, r2, lsl #5
 781 000e C0F3C010 		ubfx	r0, r0, #7, #1
 782              	.LVL98:
 246:main_cm4.c    **** }
 783              		.loc 1 246 0
 784 0012 1843     		orrs	r0, r0, r3
 785 0014 7047     		bx	lr
 786              		.cfi_endproc
 787              	.LFE516:
 788              		.size	config_get, .-config_get
 789 0016 00BF     		.section	.text.meas_get,"ax",%progbits
 790              		.align	2
 791              		.global	meas_get
 792              		.thumb
 793              		.thumb_func
 794              		.type	meas_get, %function
 795              	meas_get:
 796              	.LFB517:
 247:main_cm4.c    **** unsigned int meas_get(ctrl_meas_t meas) { 
 797              		.loc 1 247 0
 798              		.cfi_startproc
 799              		@ args = 0, pretend = 0, frame = 0
 800              		@ frame_needed = 0, uses_anonymous_args = 0
 801              		@ link register save eliminated.
 802              	.LVL99:
 248:main_cm4.c    ****     return (meas.osrs_t << 5) | (meas.osrs_p << 2) | meas.mode; 
 803              		.loc 1 248 0
 804 0000 00F00702 		and	r2, r0, #7
 805 0004 C0F3C203 		ubfx	r3, r0, #3, #3
 806 0008 9B00     		lsls	r3, r3, #2
 807 000a 43EA4213 		orr	r3, r3, r2, lsl #5
 808 000e C0F38110 		ubfx	r0, r0, #6, #2
 809              	.LVL100:
 249:main_cm4.c    **** }
 810              		.loc 1 249 0
 811 0012 1843     		orrs	r0, r0, r3
 812 0014 7047     		bx	lr
 813              		.cfi_endproc
 814              	.LFE517:
 815              		.size	meas_get, .-meas_get
ARM GAS  C:\Users\DWISET~1\AppData\Local\Temp\ccnysme0.s 			page 31


 816 0016 00BF     		.section	.text.BMP280_temp_configure,"ax",%progbits
 817              		.align	2
 818              		.global	BMP280_temp_configure
 819              		.thumb
 820              		.thumb_func
 821              		.type	BMP280_temp_configure, %function
 822              	BMP280_temp_configure:
 823              	.LFB518:
 250:main_cm4.c    **** 
 251:main_cm4.c    **** cy_en_scb_i2c_status_t  BMP280_temp_configure(void)
 252:main_cm4.c    **** {
 824              		.loc 1 252 0
 825              		.cfi_startproc
 826              		@ args = 0, pretend = 0, frame = 8
 827              		@ frame_needed = 0, uses_anonymous_args = 0
 828 0000 30B5     		push	{r4, r5, lr}
 829              		.cfi_def_cfa_offset 12
 830              		.cfi_offset 4, -12
 831              		.cfi_offset 5, -8
 832              		.cfi_offset 14, -4
 833 0002 83B0     		sub	sp, sp, #12
 834              		.cfi_def_cfa_offset 24
 253:main_cm4.c    ****     cy_en_scb_i2c_status_t status;
 254:main_cm4.c    ****     config_t t_cfg ={
 835              		.loc 1 254 0
 836 0004 0025     		movs	r5, #0
 837              	.LVL101:
 838 0006 0424     		movs	r4, #4
 839 0008 64F30205 		bfi	r5, r4, #0, #3
 840              	.LVL102:
 841 000c 64F3C505 		bfi	r5, r4, #3, #3
 255:main_cm4.c    ****             .t_sb   = 0x04,
 256:main_cm4.c    ****             .filter = 0x04,
 257:main_cm4.c    ****     };
 258:main_cm4.c    ****     ctrl_meas_t t_meas = {
 842              		.loc 1 258 0
 843 0010 0020     		movs	r0, #0
 844              	.LVL103:
 845 0012 0223     		movs	r3, #2
 846 0014 63F30200 		bfi	r0, r3, #0, #3
 847              	.LVL104:
 848 0018 0523     		movs	r3, #5
 849 001a 63F3C500 		bfi	r0, r3, #3, #3
 259:main_cm4.c    ****             .mode   = 0x03,
 260:main_cm4.c    ****             .osrs_t = 0x02,
 261:main_cm4.c    ****             .osrs_p = 0x05,
 262:main_cm4.c    ****     };
 263:main_cm4.c    ****     uint8_t buf[4];
 264:main_cm4.c    ****     buf[0] = 0xF4;
 850              		.loc 1 264 0
 851 001e F423     		movs	r3, #244
 852 0020 8DF80430 		strb	r3, [sp, #4]
 265:main_cm4.c    ****     buf[1] = meas_get(t_meas);
 853              		.loc 1 265 0
 854 0024 40F0C000 		orr	r0, r0, #192
 855              	.LVL105:
 856 0028 FFF7FEFF 		bl	meas_get
ARM GAS  C:\Users\DWISET~1\AppData\Local\Temp\ccnysme0.s 			page 32


 857              	.LVL106:
 858 002c 8DF80500 		strb	r0, [sp, #5]
 266:main_cm4.c    ****     buf[2] = 0xF5;
 859              		.loc 1 266 0
 860 0030 F523     		movs	r3, #245
 861 0032 8DF80630 		strb	r3, [sp, #6]
 267:main_cm4.c    ****     buf[3] = config_get(t_cfg);
 862              		.loc 1 267 0
 863 0036 2846     		mov	r0, r5
 864 0038 FFF7FEFF 		bl	config_get
 865              	.LVL107:
 866 003c 8DF80700 		strb	r0, [sp, #7]
 268:main_cm4.c    ****     status = bmp_write_bytes(buf,4,1000);
 867              		.loc 1 268 0
 868 0040 4FF47A72 		mov	r2, #1000
 869 0044 2146     		mov	r1, r4
 870 0046 0DEB0400 		add	r0, sp, r4
 871 004a FFF7FEFF 		bl	bmp_write_bytes
 872              	.LVL108:
 269:main_cm4.c    ****     return status;
 270:main_cm4.c    **** }
 873              		.loc 1 270 0
 874 004e 03B0     		add	sp, sp, #12
 875              		.cfi_def_cfa_offset 12
 876              		@ sp needed
 877 0050 30BD     		pop	{r4, r5, pc}
 878              		.cfi_endproc
 879              	.LFE518:
 880              		.size	BMP280_temp_configure, .-BMP280_temp_configure
 881 0052 00BF     		.section	.text.BMP280_read_ID,"ax",%progbits
 882              		.align	2
 883              		.global	BMP280_read_ID
 884              		.thumb
 885              		.thumb_func
 886              		.type	BMP280_read_ID, %function
 887              	BMP280_read_ID:
 888              	.LFB519:
 271:main_cm4.c    **** 
 272:main_cm4.c    **** uint8_t BMP280_read_ID(void)
 273:main_cm4.c    **** {
 889              		.loc 1 273 0
 890              		.cfi_startproc
 891              		@ args = 0, pretend = 0, frame = 8
 892              		@ frame_needed = 0, uses_anonymous_args = 0
 893 0000 00B5     		push	{lr}
 894              		.cfi_def_cfa_offset 4
 895              		.cfi_offset 14, -4
 896 0002 83B0     		sub	sp, sp, #12
 897              		.cfi_def_cfa_offset 16
 274:main_cm4.c    ****     uint8_t ret = 0xff;
 898              		.loc 1 274 0
 899 0004 02A9     		add	r1, sp, #8
 900 0006 FF23     		movs	r3, #255
 901 0008 01F8013D 		strb	r3, [r1, #-1]!
 275:main_cm4.c    ****     if( CY_SCB_I2C_SUCCESS == bmp_read_byte(0xD0, &ret, 1000) )
 902              		.loc 1 275 0
 903 000c 4FF47A72 		mov	r2, #1000
ARM GAS  C:\Users\DWISET~1\AppData\Local\Temp\ccnysme0.s 			page 33


 904 0010 D020     		movs	r0, #208
 905 0012 FFF7FEFF 		bl	bmp_read_byte
 906              	.LVL109:
 907 0016 10B9     		cbnz	r0, .L65
 276:main_cm4.c    ****         return ret;
 908              		.loc 1 276 0
 909 0018 9DF80700 		ldrb	r0, [sp, #7]	@ zero_extendqisi2
 910 001c 00E0     		b	.L64
 911              	.L65:
 277:main_cm4.c    ****     else
 278:main_cm4.c    ****         return 0xff;
 912              		.loc 1 278 0
 913 001e FF20     		movs	r0, #255
 914              	.L64:
 279:main_cm4.c    **** }
 915              		.loc 1 279 0
 916 0020 03B0     		add	sp, sp, #12
 917              		.cfi_def_cfa_offset 4
 918              		@ sp needed
 919 0022 5DF804FB 		ldr	pc, [sp], #4
 920              		.cfi_endproc
 921              	.LFE519:
 922              		.size	BMP280_read_ID, .-BMP280_read_ID
 923 0026 00BF     		.section	.text.BMP280_read_calibration,"ax",%progbits
 924              		.align	2
 925              		.global	BMP280_read_calibration
 926              		.thumb
 927              		.thumb_func
 928              		.type	BMP280_read_calibration, %function
 929              	BMP280_read_calibration:
 930              	.LFB520:
 280:main_cm4.c    **** 
 281:main_cm4.c    **** cy_en_scb_i2c_status_t BMP280_read_calibration(bmp280_calib_data *data)
 282:main_cm4.c    **** {
 931              		.loc 1 282 0
 932              		.cfi_startproc
 933              		@ args = 0, pretend = 0, frame = 8
 934              		@ frame_needed = 0, uses_anonymous_args = 0
 935              	.LVL110:
 936 0000 10B5     		push	{r4, lr}
 937              		.cfi_def_cfa_offset 8
 938              		.cfi_offset 4, -8
 939              		.cfi_offset 14, -4
 940 0002 82B0     		sub	sp, sp, #8
 941              		.cfi_def_cfa_offset 16
 942 0004 0446     		mov	r4, r0
 283:main_cm4.c    ****     cy_en_scb_i2c_status_t status;
 284:main_cm4.c    ****     uint8_t buffer_i2c[2];
 285:main_cm4.c    ****     status = bmp_read_bytes(0x88, buffer_i2c, 2, 1000);
 943              		.loc 1 285 0
 944 0006 4FF47A73 		mov	r3, #1000
 945 000a 0222     		movs	r2, #2
 946 000c 01A9     		add	r1, sp, #4
 947 000e 8820     		movs	r0, #136
 948              	.LVL111:
 949 0010 FFF7FEFF 		bl	bmp_read_bytes
 950              	.LVL112:
ARM GAS  C:\Users\DWISET~1\AppData\Local\Temp\ccnysme0.s 			page 34


 286:main_cm4.c    ****     if( status == CY_SCB_I2C_SUCCESS )
 951              		.loc 1 286 0
 952 0014 0028     		cmp	r0, #0
 953 0016 40F0B880 		bne	.L69
 287:main_cm4.c    ****         data->dig_T1 = (uint16_t)(buffer_i2c[1]) << 8 | (uint16_t)(buffer_i2c[0]);
 954              		.loc 1 287 0
 955 001a 9DF80520 		ldrb	r2, [sp, #5]	@ zero_extendqisi2
 956 001e 02A9     		add	r1, sp, #8
 957 0020 11F8043D 		ldrb	r3, [r1, #-4]!	@ zero_extendqisi2
 958 0024 43EA0223 		orr	r3, r3, r2, lsl #8
 959 0028 2380     		strh	r3, [r4]	@ movhi
 288:main_cm4.c    ****     else
 289:main_cm4.c    ****         return status;   
 290:main_cm4.c    ****     status = bmp_read_bytes(0x8A, buffer_i2c, 2, 1000);
 960              		.loc 1 290 0
 961 002a 4FF47A73 		mov	r3, #1000
 962 002e 0222     		movs	r2, #2
 963 0030 8A20     		movs	r0, #138
 964              	.LVL113:
 965 0032 FFF7FEFF 		bl	bmp_read_bytes
 966              	.LVL114:
 291:main_cm4.c    ****     if( status == CY_SCB_I2C_SUCCESS )
 967              		.loc 1 291 0
 968 0036 0028     		cmp	r0, #0
 969 0038 40F0A880 		bne	.L70
 292:main_cm4.c    ****         data->dig_T2 = (int16_t)((uint16_t)(buffer_i2c[1]) << 8 | (uint16_t)(buffer_i2c[0]));
 970              		.loc 1 292 0
 971 003c 9DF80520 		ldrb	r2, [sp, #5]	@ zero_extendqisi2
 972 0040 02A9     		add	r1, sp, #8
 973 0042 11F8043D 		ldrb	r3, [r1, #-4]!	@ zero_extendqisi2
 974 0046 43EA0223 		orr	r3, r3, r2, lsl #8
 975 004a 6380     		strh	r3, [r4, #2]	@ movhi
 293:main_cm4.c    ****     else
 294:main_cm4.c    ****         return status;
 295:main_cm4.c    ****         
 296:main_cm4.c    ****     status = bmp_read_bytes(0x8C, buffer_i2c, 2, 1000);
 976              		.loc 1 296 0
 977 004c 4FF47A73 		mov	r3, #1000
 978 0050 0222     		movs	r2, #2
 979 0052 8C20     		movs	r0, #140
 980              	.LVL115:
 981 0054 FFF7FEFF 		bl	bmp_read_bytes
 982              	.LVL116:
 297:main_cm4.c    ****     if( status == CY_SCB_I2C_SUCCESS )
 983              		.loc 1 297 0
 984 0058 0028     		cmp	r0, #0
 985 005a 40F09880 		bne	.L71
 298:main_cm4.c    ****         data->dig_T3 = (int16_t)((uint16_t)(buffer_i2c[1]) << 8 | (uint16_t)(buffer_i2c[0]));
 986              		.loc 1 298 0
 987 005e 9DF80520 		ldrb	r2, [sp, #5]	@ zero_extendqisi2
 988 0062 02A9     		add	r1, sp, #8
 989 0064 11F8043D 		ldrb	r3, [r1, #-4]!	@ zero_extendqisi2
 990 0068 43EA0223 		orr	r3, r3, r2, lsl #8
 991 006c A380     		strh	r3, [r4, #4]	@ movhi
 299:main_cm4.c    ****     else
 300:main_cm4.c    ****         return status;    
 301:main_cm4.c    **** 
ARM GAS  C:\Users\DWISET~1\AppData\Local\Temp\ccnysme0.s 			page 35


 302:main_cm4.c    ****     status = bmp_read_bytes(0x8E, buffer_i2c, 2, 1000);
 992              		.loc 1 302 0
 993 006e 4FF47A73 		mov	r3, #1000
 994 0072 0222     		movs	r2, #2
 995 0074 8E20     		movs	r0, #142
 996              	.LVL117:
 997 0076 FFF7FEFF 		bl	bmp_read_bytes
 998              	.LVL118:
 303:main_cm4.c    ****     if( status == CY_SCB_I2C_SUCCESS )
 999              		.loc 1 303 0
 1000 007a 0028     		cmp	r0, #0
 1001 007c 40F08880 		bne	.L72
 304:main_cm4.c    ****         data->dig_P1 = (uint16_t)(buffer_i2c[1]) << 8 | (uint16_t)(buffer_i2c[0]);
 1002              		.loc 1 304 0
 1003 0080 9DF80520 		ldrb	r2, [sp, #5]	@ zero_extendqisi2
 1004 0084 02A9     		add	r1, sp, #8
 1005 0086 11F8043D 		ldrb	r3, [r1, #-4]!	@ zero_extendqisi2
 1006 008a 43EA0223 		orr	r3, r3, r2, lsl #8
 1007 008e E380     		strh	r3, [r4, #6]	@ movhi
 305:main_cm4.c    ****     else
 306:main_cm4.c    ****         return status;  
 307:main_cm4.c    ****         
 308:main_cm4.c    ****     status = bmp_read_bytes(0x90, buffer_i2c, 2, 1000);
 1008              		.loc 1 308 0
 1009 0090 4FF47A73 		mov	r3, #1000
 1010 0094 0222     		movs	r2, #2
 1011 0096 9020     		movs	r0, #144
 1012              	.LVL119:
 1013 0098 FFF7FEFF 		bl	bmp_read_bytes
 1014              	.LVL120:
 309:main_cm4.c    ****     if( status == CY_SCB_I2C_SUCCESS )
 1015              		.loc 1 309 0
 1016 009c 0028     		cmp	r0, #0
 1017 009e 78D1     		bne	.L73
 310:main_cm4.c    ****         data->dig_P2 = (int16_t)((uint16_t)(buffer_i2c[1]) << 8 | (uint16_t)(buffer_i2c[0]));
 1018              		.loc 1 310 0
 1019 00a0 9DF80520 		ldrb	r2, [sp, #5]	@ zero_extendqisi2
 1020 00a4 02A9     		add	r1, sp, #8
 1021 00a6 11F8043D 		ldrb	r3, [r1, #-4]!	@ zero_extendqisi2
 1022 00aa 43EA0223 		orr	r3, r3, r2, lsl #8
 1023 00ae 2381     		strh	r3, [r4, #8]	@ movhi
 311:main_cm4.c    ****     else
 312:main_cm4.c    ****         return status;   
 313:main_cm4.c    ****     
 314:main_cm4.c    ****     status = bmp_read_bytes(0x92, buffer_i2c, 2, 1000);
 1024              		.loc 1 314 0
 1025 00b0 4FF47A73 		mov	r3, #1000
 1026 00b4 0222     		movs	r2, #2
 1027 00b6 9220     		movs	r0, #146
 1028              	.LVL121:
 1029 00b8 FFF7FEFF 		bl	bmp_read_bytes
 1030              	.LVL122:
 315:main_cm4.c    ****     if( status == CY_SCB_I2C_SUCCESS )
 1031              		.loc 1 315 0
 1032 00bc 0028     		cmp	r0, #0
 1033 00be 69D1     		bne	.L74
 316:main_cm4.c    ****         data->dig_P3 = (int16_t)((uint16_t)(buffer_i2c[1]) << 8 | (uint16_t)(buffer_i2c[0]));
ARM GAS  C:\Users\DWISET~1\AppData\Local\Temp\ccnysme0.s 			page 36


 1034              		.loc 1 316 0
 1035 00c0 9DF80520 		ldrb	r2, [sp, #5]	@ zero_extendqisi2
 1036 00c4 02A9     		add	r1, sp, #8
 1037 00c6 11F8043D 		ldrb	r3, [r1, #-4]!	@ zero_extendqisi2
 1038 00ca 43EA0223 		orr	r3, r3, r2, lsl #8
 1039 00ce 6381     		strh	r3, [r4, #10]	@ movhi
 317:main_cm4.c    ****     else
 318:main_cm4.c    ****         return status;
 319:main_cm4.c    ****     
 320:main_cm4.c    ****     status = bmp_read_bytes(0x94, buffer_i2c, 2, 1000);
 1040              		.loc 1 320 0
 1041 00d0 4FF47A73 		mov	r3, #1000
 1042 00d4 0222     		movs	r2, #2
 1043 00d6 9420     		movs	r0, #148
 1044              	.LVL123:
 1045 00d8 FFF7FEFF 		bl	bmp_read_bytes
 1046              	.LVL124:
 321:main_cm4.c    ****     if( status == CY_SCB_I2C_SUCCESS )
 1047              		.loc 1 321 0
 1048 00dc 0028     		cmp	r0, #0
 1049 00de 5AD1     		bne	.L75
 322:main_cm4.c    ****         data->dig_P4 = (int16_t)((uint16_t)(buffer_i2c[1]) << 8 | (uint16_t)(buffer_i2c[0]));
 1050              		.loc 1 322 0
 1051 00e0 9DF80520 		ldrb	r2, [sp, #5]	@ zero_extendqisi2
 1052 00e4 02A9     		add	r1, sp, #8
 1053 00e6 11F8043D 		ldrb	r3, [r1, #-4]!	@ zero_extendqisi2
 1054 00ea 43EA0223 		orr	r3, r3, r2, lsl #8
 1055 00ee A381     		strh	r3, [r4, #12]	@ movhi
 323:main_cm4.c    ****     else
 324:main_cm4.c    ****         return status;
 325:main_cm4.c    ****     
 326:main_cm4.c    ****     status = bmp_read_bytes(0x96, buffer_i2c, 2, 1000);
 1056              		.loc 1 326 0
 1057 00f0 4FF47A73 		mov	r3, #1000
 1058 00f4 0222     		movs	r2, #2
 1059 00f6 9620     		movs	r0, #150
 1060              	.LVL125:
 1061 00f8 FFF7FEFF 		bl	bmp_read_bytes
 1062              	.LVL126:
 327:main_cm4.c    ****     if( status == CY_SCB_I2C_SUCCESS )
 1063              		.loc 1 327 0
 1064 00fc 0028     		cmp	r0, #0
 1065 00fe 4BD1     		bne	.L76
 328:main_cm4.c    ****         data->dig_P5 = (int16_t)((uint16_t)(buffer_i2c[1]) << 8 | (uint16_t)(buffer_i2c[0]));
 1066              		.loc 1 328 0
 1067 0100 9DF80520 		ldrb	r2, [sp, #5]	@ zero_extendqisi2
 1068 0104 02A9     		add	r1, sp, #8
 1069 0106 11F8043D 		ldrb	r3, [r1, #-4]!	@ zero_extendqisi2
 1070 010a 43EA0223 		orr	r3, r3, r2, lsl #8
 1071 010e E381     		strh	r3, [r4, #14]	@ movhi
 329:main_cm4.c    ****     else
 330:main_cm4.c    ****         return status;
 331:main_cm4.c    ****     
 332:main_cm4.c    ****     status = bmp_read_bytes(0x98, buffer_i2c, 2, 1000);
 1072              		.loc 1 332 0
 1073 0110 4FF47A73 		mov	r3, #1000
 1074 0114 0222     		movs	r2, #2
ARM GAS  C:\Users\DWISET~1\AppData\Local\Temp\ccnysme0.s 			page 37


 1075 0116 9820     		movs	r0, #152
 1076              	.LVL127:
 1077 0118 FFF7FEFF 		bl	bmp_read_bytes
 1078              	.LVL128:
 333:main_cm4.c    ****     if( status == CY_SCB_I2C_SUCCESS )
 1079              		.loc 1 333 0
 1080 011c 0028     		cmp	r0, #0
 1081 011e 3CD1     		bne	.L77
 334:main_cm4.c    ****         data->dig_P6 = (int16_t)((uint16_t)(buffer_i2c[1]) << 8 | (uint16_t)(buffer_i2c[0]));
 1082              		.loc 1 334 0
 1083 0120 9DF80520 		ldrb	r2, [sp, #5]	@ zero_extendqisi2
 1084 0124 02A9     		add	r1, sp, #8
 1085 0126 11F8043D 		ldrb	r3, [r1, #-4]!	@ zero_extendqisi2
 1086 012a 43EA0223 		orr	r3, r3, r2, lsl #8
 1087 012e 2382     		strh	r3, [r4, #16]	@ movhi
 335:main_cm4.c    ****     else
 336:main_cm4.c    ****         return status;
 337:main_cm4.c    ****     
 338:main_cm4.c    ****     status = bmp_read_bytes(0x9A, buffer_i2c, 2, 1000);
 1088              		.loc 1 338 0
 1089 0130 4FF47A73 		mov	r3, #1000
 1090 0134 0222     		movs	r2, #2
 1091 0136 9A20     		movs	r0, #154
 1092              	.LVL129:
 1093 0138 FFF7FEFF 		bl	bmp_read_bytes
 1094              	.LVL130:
 339:main_cm4.c    ****     if( status == CY_SCB_I2C_SUCCESS )
 1095              		.loc 1 339 0
 1096 013c 70BB     		cbnz	r0, .L78
 340:main_cm4.c    ****         data->dig_P7 = (int16_t)((uint16_t)(buffer_i2c[1]) << 8 | (uint16_t)(buffer_i2c[0]));
 1097              		.loc 1 340 0
 1098 013e 9DF80520 		ldrb	r2, [sp, #5]	@ zero_extendqisi2
 1099 0142 02A9     		add	r1, sp, #8
 1100 0144 11F8043D 		ldrb	r3, [r1, #-4]!	@ zero_extendqisi2
 1101 0148 43EA0223 		orr	r3, r3, r2, lsl #8
 1102 014c 6382     		strh	r3, [r4, #18]	@ movhi
 341:main_cm4.c    ****     else
 342:main_cm4.c    ****         return status;
 343:main_cm4.c    ****     
 344:main_cm4.c    ****     status = bmp_read_bytes(0x9C, buffer_i2c, 2, 1000);
 1103              		.loc 1 344 0
 1104 014e 4FF47A73 		mov	r3, #1000
 1105 0152 0222     		movs	r2, #2
 1106 0154 9C20     		movs	r0, #156
 1107              	.LVL131:
 1108 0156 FFF7FEFF 		bl	bmp_read_bytes
 1109              	.LVL132:
 345:main_cm4.c    ****     if( status == CY_SCB_I2C_SUCCESS )
 1110              		.loc 1 345 0
 1111 015a 00BB     		cbnz	r0, .L79
 346:main_cm4.c    ****         data->dig_P8 = (int16_t)((uint16_t)(buffer_i2c[1]) << 8 | (uint16_t)(buffer_i2c[0]));
 1112              		.loc 1 346 0
 1113 015c 9DF80520 		ldrb	r2, [sp, #5]	@ zero_extendqisi2
 1114 0160 02A9     		add	r1, sp, #8
 1115 0162 11F8043D 		ldrb	r3, [r1, #-4]!	@ zero_extendqisi2
 1116 0166 43EA0223 		orr	r3, r3, r2, lsl #8
 1117 016a A382     		strh	r3, [r4, #20]	@ movhi
ARM GAS  C:\Users\DWISET~1\AppData\Local\Temp\ccnysme0.s 			page 38


 347:main_cm4.c    ****     else
 348:main_cm4.c    ****         return status;
 349:main_cm4.c    ****     
 350:main_cm4.c    ****     status = bmp_read_bytes(0x9E, buffer_i2c, 2, 1000);
 1118              		.loc 1 350 0
 1119 016c 4FF47A73 		mov	r3, #1000
 1120 0170 0222     		movs	r2, #2
 1121 0172 9E20     		movs	r0, #158
 1122              	.LVL133:
 1123 0174 FFF7FEFF 		bl	bmp_read_bytes
 1124              	.LVL134:
 351:main_cm4.c    ****     if( status == CY_SCB_I2C_SUCCESS )
 1125              		.loc 1 351 0
 1126 0178 90B9     		cbnz	r0, .L80
 352:main_cm4.c    ****         data->dig_P9 = (int16_t)((uint16_t)(buffer_i2c[1]) << 8 | (uint16_t)(buffer_i2c[0]));
 1127              		.loc 1 352 0
 1128 017a 9DF80510 		ldrb	r1, [sp, #5]	@ zero_extendqisi2
 1129 017e 9DF80420 		ldrb	r2, [sp, #4]	@ zero_extendqisi2
 1130 0182 42EA0122 		orr	r2, r2, r1, lsl #8
 1131 0186 E282     		strh	r2, [r4, #22]	@ movhi
 1132 0188 0AE0     		b	.L68
 1133              	.L69:
 1134 018a 09E0     		b	.L68
 1135              	.L70:
 1136 018c 08E0     		b	.L68
 1137              	.L71:
 1138 018e 07E0     		b	.L68
 1139              	.L72:
 1140 0190 06E0     		b	.L68
 1141              	.L73:
 1142 0192 05E0     		b	.L68
 1143              	.L74:
 1144 0194 04E0     		b	.L68
 1145              	.L75:
 1146 0196 03E0     		b	.L68
 1147              	.L76:
 1148 0198 02E0     		b	.L68
 1149              	.L77:
 1150 019a 01E0     		b	.L68
 1151              	.L78:
 1152 019c 00E0     		b	.L68
 1153              	.L79:
 1154 019e FFE7     		b	.L68
 1155              	.L80:
 1156              	.L68:
 353:main_cm4.c    ****     return status;
 354:main_cm4.c    **** }
 1157              		.loc 1 354 0
 1158 01a0 02B0     		add	sp, sp, #8
 1159              		.cfi_def_cfa_offset 8
 1160              		@ sp needed
 1161 01a2 10BD     		pop	{r4, pc}
 1162              		.cfi_endproc
 1163              	.LFE520:
 1164              		.size	BMP280_read_calibration, .-BMP280_read_calibration
 1165              		.global	__aeabi_l2f
 1166              		.global	__aeabi_ldivmod
ARM GAS  C:\Users\DWISET~1\AppData\Local\Temp\ccnysme0.s 			page 39


 1167              		.section	.text.BMP280_readValue,"ax",%progbits
 1168              		.align	2
 1169              		.global	BMP280_readValue
 1170              		.thumb
 1171              		.thumb_func
 1172              		.type	BMP280_readValue, %function
 1173              	BMP280_readValue:
 1174              	.LFB521:
 355:main_cm4.c    **** 
 356:main_cm4.c    **** cy_en_scb_i2c_status_t BMP280_readValue(bmp280_calib_data cal, float* temperature, float*pressure, 
 357:main_cm4.c    **** {
 1175              		.loc 1 357 0
 1176              		.cfi_startproc
 1177              		@ args = 36, pretend = 16, frame = 8
 1178              		@ frame_needed = 0, uses_anonymous_args = 0
 1179              	.LVL135:
 1180 0000 84B0     		sub	sp, sp, #16
 1181              		.cfi_def_cfa_offset 16
 1182 0002 2DE9F047 		push	{r4, r5, r6, r7, r8, r9, r10, lr}
 1183              		.cfi_def_cfa_offset 48
 1184              		.cfi_offset 4, -48
 1185              		.cfi_offset 5, -44
 1186              		.cfi_offset 6, -40
 1187              		.cfi_offset 7, -36
 1188              		.cfi_offset 8, -32
 1189              		.cfi_offset 9, -28
 1190              		.cfi_offset 10, -24
 1191              		.cfi_offset 14, -20
 1192 0006 82B0     		sub	sp, sp, #8
 1193              		.cfi_def_cfa_offset 56
 1194 0008 0AAC     		add	r4, sp, #40
 1195 000a 84E80F00 		stmia	r4, {r0, r1, r2, r3}
 358:main_cm4.c    ****     cy_en_scb_i2c_status_t status;
 359:main_cm4.c    ****     uint8_t buffer_i2c[4];
 360:main_cm4.c    ****     int32_t adc_T; int64_t var1, var2;
 361:main_cm4.c    ****     status = bmp_read_bytes(0xFA, buffer_i2c, 3, 500);
 1196              		.loc 1 361 0
 1197 000e 4FF4FA73 		mov	r3, #500
 1198 0012 0322     		movs	r2, #3
 1199 0014 01A9     		add	r1, sp, #4
 1200 0016 FA20     		movs	r0, #250
 1201 0018 FFF7FEFF 		bl	bmp_read_bytes
 1202              	.LVL136:
 362:main_cm4.c    ****     adc_T = (uint32_t)(buffer_i2c[0]) << 16 | (uint32_t)(buffer_i2c[1]) << 8 | (uint32_t)(buffer_i2
 1203              		.loc 1 362 0
 1204 001c 9DF80420 		ldrb	r2, [sp, #4]	@ zero_extendqisi2
 1205 0020 9DF80530 		ldrb	r3, [sp, #5]	@ zero_extendqisi2
 1206 0024 1B02     		lsls	r3, r3, #8
 1207 0026 43EA0243 		orr	r3, r3, r2, lsl #16
 1208 002a 9DF80600 		ldrb	r0, [sp, #6]	@ zero_extendqisi2
 1209 002e 1843     		orrs	r0, r0, r3
 1210              	.LVL137:
 363:main_cm4.c    ****     adc_T >>= 4;
 364:main_cm4.c    ****     var1 = ((((adc_T >> 3) - ((int32_t)cal.dig_T1 << 1))) * ((int32_t)cal.dig_T2)) >> 11;
 1211              		.loc 1 364 0
 1212 0030 BDF82830 		ldrh	r3, [sp, #40]
 1213 0034 5900     		lsls	r1, r3, #1
ARM GAS  C:\Users\DWISET~1\AppData\Local\Temp\ccnysme0.s 			page 40


 1214 0036 C1EBE011 		rsb	r1, r1, r0, asr #7
 1215 003a BDF92A20 		ldrsh	r2, [sp, #42]
 1216 003e 02FB01F1 		mul	r1, r2, r1
 1217 0042 C912     		asrs	r1, r1, #11
 1218              	.LVL138:
 365:main_cm4.c    ****     var2 = (((((adc_T >> 4) - ((int32_t)cal.dig_T1)) * ((adc_T >> 4) - ((int32_t)cal.dig_T1))) >> 1
 1219              		.loc 1 365 0
 1220 0044 C3EB2023 		rsb	r3, r3, r0, asr #8
 1221 0048 03FB03F3 		mul	r3, r3, r3
 1222 004c 1B13     		asrs	r3, r3, #12
 1223 004e BDF92C20 		ldrsh	r2, [sp, #44]
 1224 0052 02FB03F2 		mul	r2, r2, r3
 1225 0056 9213     		asrs	r2, r2, #14
 1226 0058 D317     		asrs	r3, r2, #31
 1227              	.LVL139:
 366:main_cm4.c    ****     float T = ( ((var1 + var2) * 5 + 128) >> 8 ) ;
 1228              		.loc 1 366 0
 1229 005a 5418     		adds	r4, r2, r1
 1230 005c 43EBE175 		adc	r5, r3, r1, asr #31
 1231 0060 A900     		lsls	r1, r5, #2
 1232              	.LVL140:
 1233 0062 A200     		lsls	r2, r4, #2
 1234              	.LVL141:
 1235 0064 41EA9473 		orr	r3, r1, r4, lsr #30
 1236 0068 1219     		adds	r2, r2, r4
 1237 006a 6B41     		adcs	r3, r3, r5
 1238 006c 8032     		adds	r2, r2, #128
 1239 006e 43F10003 		adc	r3, r3, #0
 1240 0072 100A     		lsrs	r0, r2, #8
 1241              	.LVL142:
 1242 0074 40EA0360 		orr	r0, r0, r3, lsl #24
 1243 0078 1912     		asrs	r1, r3, #8
 1244 007a FFF7FEFF 		bl	__aeabi_l2f
 1245              	.LVL143:
 367:main_cm4.c    ****     *temperature =  (float)(T / 100);
 1246              		.loc 1 367 0
 1247 007e 9FED777A 		vldr.32	s14, .L86
 1248 0082 06EE900A 		vmov	s13, r0
 1249 0086 C6EE877A 		vdiv.f32	s15, s13, s14
 1250 008a 109B     		ldr	r3, [sp, #64]
 1251 008c C3ED007A 		vstr.32	s15, [r3]
 368:main_cm4.c    ****     
 369:main_cm4.c    ****     status = bmp_read_bytes(0xF7, buffer_i2c, 3, 500);
 1252              		.loc 1 369 0
 1253 0090 4FF4FA73 		mov	r3, #500
 1254 0094 0322     		movs	r2, #3
 1255 0096 01A9     		add	r1, sp, #4
 1256 0098 F720     		movs	r0, #247
 1257              	.LVL144:
 1258 009a FFF7FEFF 		bl	bmp_read_bytes
 1259              	.LVL145:
 1260 009e 8246     		mov	r10, r0
 1261              	.LVL146:
 370:main_cm4.c    ****     adc_T = (uint32_t)(buffer_i2c[0]) << 16 | (uint32_t)(buffer_i2c[1]) << 8 | (uint32_t)(buffer_i2
 1262              		.loc 1 370 0
 1263 00a0 9DF80420 		ldrb	r2, [sp, #4]	@ zero_extendqisi2
 1264 00a4 9DF80530 		ldrb	r3, [sp, #5]	@ zero_extendqisi2
ARM GAS  C:\Users\DWISET~1\AppData\Local\Temp\ccnysme0.s 			page 41


 1265 00a8 1B02     		lsls	r3, r3, #8
 1266 00aa 43EA0243 		orr	r3, r3, r2, lsl #16
 1267 00ae 9DF806E0 		ldrb	lr, [sp, #6]	@ zero_extendqisi2
 1268 00b2 43EA0E0E 		orr	lr, r3, lr
 1269              	.LVL147:
 371:main_cm4.c    ****     
 372:main_cm4.c    ****     adc_T >>= 4;
 373:main_cm4.c    ****     var1 = ((int64_t)(var1 + var2)) - 128000;
 1270              		.loc 1 373 0
 1271 00b6 B4F5FA32 		subs	r2, r4, #128000
 1272 00ba 45F1FF33 		adc	r3, r5, #-1
 1273              	.LVL148:
 374:main_cm4.c    ****     var2 = var1 * var1 * (int64_t)cal.dig_P6;
 1274              		.loc 1 374 0
 1275 00be 02FB03F1 		mul	r1, r2, r3
 1276 00c2 A2FB0267 		umull	r6, r7, r2, r2
 1277 00c6 07EB4107 		add	r7, r7, r1, lsl #1
 1278 00ca BDF93880 		ldrsh	r8, [sp, #56]
 1279 00ce 4FEAE879 		asr	r9, r8, #31
 1280 00d2 06FB09F1 		mul	r1, r6, r9
 1281 00d6 08FB0711 		mla	r1, r8, r7, r1
 1282 00da A6FB0889 		umull	r8, r9, r6, r8
 1283 00de 8944     		add	r9, r9, r1
 1284              	.LVL149:
 375:main_cm4.c    ****     var2 = var2 + ((var1 * (int64_t)cal.dig_P5) << 17);
 1285              		.loc 1 375 0
 1286 00e0 BDF93640 		ldrsh	r4, [sp, #54]
 1287 00e4 E517     		asrs	r5, r4, #31
 1288 00e6 02FB05F1 		mul	r1, r2, r5
 1289 00ea 04FB0311 		mla	r1, r4, r3, r1
 1290 00ee A2FB0445 		umull	r4, r5, r2, r4
 1291 00f2 0D44     		add	r5, r5, r1
 1292 00f4 6904     		lsls	r1, r5, #17
 1293 00f6 41EAD431 		orr	r1, r1, r4, lsr #15
 1294 00fa 6004     		lsls	r0, r4, #17
 1295              	.LVL150:
 1296 00fc 10EB0800 		adds	r0, r0, r8
 1297 0100 41EB0901 		adc	r1, r1, r9
 1298              	.LVL151:
 376:main_cm4.c    ****     var2 = var2 + (((int64_t)cal.dig_P4) << 35);
 1299              		.loc 1 376 0
 1300 0104 BDF93480 		ldrsh	r8, [sp, #52]
 1301 0108 0024     		movs	r4, #0
 1302 010a 4FEAC805 		lsl	r5, r8, #3
 1303 010e 0019     		adds	r0, r0, r4
 1304              	.LVL152:
 1305 0110 6941     		adcs	r1, r1, r5
 1306              	.LVL153:
 377:main_cm4.c    ****     var1 = ((var1 * var1 * (int64_t)cal.dig_P3) >> 8) +
 1307              		.loc 1 377 0
 1308 0112 BDF93240 		ldrsh	r4, [sp, #50]
 1309 0116 E517     		asrs	r5, r4, #31
 1310 0118 06FB05F5 		mul	r5, r6, r5
 1311 011c 04FB0755 		mla	r5, r4, r7, r5
 1312 0120 A6FB0467 		umull	r6, r7, r6, r4
 1313 0124 2F44     		add	r7, r7, r5
 1314 0126 4FEA1628 		lsr	r8, r6, #8
ARM GAS  C:\Users\DWISET~1\AppData\Local\Temp\ccnysme0.s 			page 42


 1315 012a 48EA0768 		orr	r8, r8, r7, lsl #24
 1316 012e 4FEA2729 		asr	r9, r7, #8
 378:main_cm4.c    ****          ((var1 * (int64_t)cal.dig_P2) << 12);
 1317              		.loc 1 378 0
 1318 0132 BDF93040 		ldrsh	r4, [sp, #48]
 1319 0136 E517     		asrs	r5, r4, #31
 1320 0138 02FB05F5 		mul	r5, r2, r5
 1321 013c 04FB0355 		mla	r5, r4, r3, r5
 1322 0140 A2FB0423 		umull	r2, r3, r2, r4
 1323              	.LVL154:
 1324 0144 2B44     		add	r3, r3, r5
 1325 0146 1D03     		lsls	r5, r3, #12
 1326 0148 45EA1255 		orr	r5, r5, r2, lsr #20
 1327 014c 1403     		lsls	r4, r2, #12
 377:main_cm4.c    ****     var1 = ((var1 * var1 * (int64_t)cal.dig_P3) >> 8) +
 1328              		.loc 1 377 0
 1329 014e 14EB0804 		adds	r4, r4, r8
 1330 0152 45EB0905 		adc	r5, r5, r9
 1331              	.LVL155:
 379:main_cm4.c    ****     var1 = (((((int64_t)1) << 47) + var1)) * ((int64_t)cal.dig_P1) >> 33;
 1332              		.loc 1 379 0
 1333 0156 0034     		adds	r4, r4, #0
 1334              	.LVL156:
 1335 0158 45F50045 		adc	r5, r5, #32768
 1336 015c BDF82E20 		ldrh	r2, [sp, #46]
 1337 0160 A4FB0267 		umull	r6, r7, r4, r2
 1338 0164 02FB0577 		mla	r7, r2, r5, r7
 1339 0168 7A10     		asrs	r2, r7, #1
 1340 016a FB17     		asrs	r3, r7, #31
 1341              	.LVL157:
 380:main_cm4.c    **** 
 381:main_cm4.c    ****     if (var1 == 0)
 1342              		.loc 1 381 0
 1343 016c 52EA0304 		orrs	r4, r2, r3
 1344 0170 03D1     		bne	.L83
 382:main_cm4.c    ****         *pressure = 0; // avoid exception caused by division by zero
 1345              		.loc 1 382 0
 1346 0172 0023     		movs	r3, #0
 1347 0174 119A     		ldr	r2, [sp, #68]
 1348              	.LVL158:
 1349 0176 1360     		str	r3, [r2]	@ float
 1350 0178 6AE0     		b	.L84
 1351              	.LVL159:
 1352              	.L83:
 1353 017a 4FEA2E1E 		asr	lr, lr, #4
 1354              	.LVL160:
 1355              	.LBB106:
 383:main_cm4.c    ****     else
 384:main_cm4.c    ****     {
 385:main_cm4.c    ****         int64_t p = 1048576 - adc_T;
 1356              		.loc 1 385 0
 1357 017e CEF5801E 		rsb	lr, lr, #1048576
 1358 0182 7646     		mov	r6, lr
 1359 0184 F717     		asrs	r7, r6, #31
 386:main_cm4.c    ****         p = (((p << 31) - var2) * 3125) / var1;
 1360              		.loc 1 386 0
 1361 0186 FD07     		lsls	r5, r7, #31
ARM GAS  C:\Users\DWISET~1\AppData\Local\Temp\ccnysme0.s 			page 43


 1362 0188 45EA5E05 		orr	r5, r5, lr, lsr #1
 1363 018c 4FEACE74 		lsl	r4, lr, #31
 1364 0190 201A     		subs	r0, r4, r0
 1365              	.LVL161:
 1366 0192 65EB0101 		sbc	r1, r5, r1
 1367 0196 0418     		adds	r4, r0, r0
 1368 0198 41EB0105 		adc	r5, r1, r1
 1369 019c 2418     		adds	r4, r4, r0
 1370 019e 4D41     		adcs	r5, r5, r1
 1371 01a0 AF01     		lsls	r7, r5, #6
 1372 01a2 47EA9467 		orr	r7, r7, r4, lsr #26
 1373 01a6 A601     		lsls	r6, r4, #6
 1374 01a8 3619     		adds	r6, r6, r4
 1375 01aa 6F41     		adcs	r7, r7, r5
 1376 01ac BC00     		lsls	r4, r7, #2
 1377 01ae 44EA9674 		orr	r4, r4, r6, lsr #30
 1378 01b2 B500     		lsls	r5, r6, #2
 1379 01b4 2E18     		adds	r6, r5, r0
 1380 01b6 44EB0107 		adc	r7, r4, r1
 1381 01ba BC00     		lsls	r4, r7, #2
 1382 01bc 44EA9674 		orr	r4, r4, r6, lsr #30
 1383 01c0 B500     		lsls	r5, r6, #2
 1384 01c2 4019     		adds	r0, r0, r5
 1385 01c4 6141     		adcs	r1, r1, r4
 1386 01c6 FFF7FEFF 		bl	__aeabi_ldivmod
 1387              	.LVL162:
 387:main_cm4.c    ****         var1 = (((int64_t)cal.dig_P9) * (p >> 13) * (p >> 13)) >> 25;
 1388              		.loc 1 387 0
 1389 01ca BDF93E40 		ldrsh	r4, [sp, #62]
 1390 01ce E517     		asrs	r5, r4, #31
 1391 01d0 430B     		lsrs	r3, r0, #13
 1392 01d2 43EAC143 		orr	r3, r3, r1, lsl #19
 1393 01d6 4A13     		asrs	r2, r1, #13
 1394 01d8 04FB02F6 		mul	r6, r4, r2
 1395 01dc 03FB0566 		mla	r6, r3, r5, r6
 1396 01e0 A4FB0345 		umull	r4, r5, r4, r3
 1397 01e4 3544     		add	r5, r5, r6
 1398 01e6 03FB05F5 		mul	r5, r3, r5
 1399 01ea 02FB0452 		mla	r2, r2, r4, r5
 1400 01ee A3FB0445 		umull	r4, r5, r3, r4
 1401 01f2 1544     		add	r5, r5, r2
 1402 01f4 620E     		lsrs	r2, r4, #25
 1403 01f6 42EAC512 		orr	r2, r2, r5, lsl #7
 1404 01fa 6B16     		asrs	r3, r5, #25
 1405              	.LVL163:
 388:main_cm4.c    ****         var2 = (((int64_t)cal.dig_P8) * p) >> 19;
 1406              		.loc 1 388 0
 1407 01fc BDF93C40 		ldrsh	r4, [sp, #60]
 1408 0200 E517     		asrs	r5, r4, #31
 1409 0202 00FB05F6 		mul	r6, r0, r5
 1410 0206 04FB0166 		mla	r6, r4, r1, r6
 1411 020a A0FB0445 		umull	r4, r5, r0, r4
 1412 020e 3544     		add	r5, r5, r6
 1413 0210 E60C     		lsrs	r6, r4, #19
 1414 0212 46EA4536 		orr	r6, r6, r5, lsl #13
 1415 0216 EF14     		asrs	r7, r5, #19
 1416              	.LVL164:
ARM GAS  C:\Users\DWISET~1\AppData\Local\Temp\ccnysme0.s 			page 44


 389:main_cm4.c    ****         p = ((p + var1 + var2) >> 8) + (((int64_t)cal.dig_P7) << 4);
 1417              		.loc 1 389 0
 1418 0218 8018     		adds	r0, r0, r2
 1419              	.LVL165:
 1420 021a 5941     		adcs	r1, r1, r3
 1421 021c 3618     		adds	r6, r6, r0
 1422              	.LVL166:
 1423 021e 4F41     		adcs	r7, r7, r1
 1424 0220 300A     		lsrs	r0, r6, #8
 1425 0222 40EA0760 		orr	r0, r0, r7, lsl #24
 1426 0226 3912     		asrs	r1, r7, #8
 1427 0228 BDF93A40 		ldrsh	r4, [sp, #58]
 1428 022c E517     		asrs	r5, r4, #31
 1429 022e 2B01     		lsls	r3, r5, #4
 1430 0230 43EA1473 		orr	r3, r3, r4, lsr #28
 1431 0234 2201     		lsls	r2, r4, #4
 1432              	.LVL167:
 390:main_cm4.c    ****         *pressure = (float)p / 256;
 1433              		.loc 1 390 0
 1434 0236 8018     		adds	r0, r0, r2
 1435              	.LVL168:
 1436 0238 5941     		adcs	r1, r1, r3
 1437 023a FFF7FEFF 		bl	__aeabi_l2f
 1438              	.LVL169:
 1439 023e DFED087A 		vldr.32	s15, .L86+4
 1440 0242 07EE100A 		vmov	s14, r0
 1441 0246 67EE277A 		vmul.f32	s15, s14, s15
 1442 024a 119B     		ldr	r3, [sp, #68]
 1443 024c C3ED007A 		vstr.32	s15, [r3]
 1444              	.L84:
 1445              	.LBE106:
 391:main_cm4.c    ****     }
 392:main_cm4.c    ****     return status;
 393:main_cm4.c    **** }
 1446              		.loc 1 393 0
 1447 0250 5046     		mov	r0, r10
 1448 0252 02B0     		add	sp, sp, #8
 1449              		.cfi_def_cfa_offset 48
 1450              		@ sp needed
 1451 0254 BDE8F047 		pop	{r4, r5, r6, r7, r8, r9, r10, lr}
 1452              		.cfi_restore 14
 1453              		.cfi_restore 10
 1454              		.cfi_restore 9
 1455              		.cfi_restore 8
 1456              		.cfi_restore 7
 1457              		.cfi_restore 6
 1458              		.cfi_restore 5
 1459              		.cfi_restore 4
 1460              		.cfi_def_cfa_offset 16
 1461              	.LVL170:
 1462 0258 04B0     		add	sp, sp, #16
 1463              		.cfi_def_cfa_offset 0
 1464 025a 7047     		bx	lr
 1465              	.L87:
 1466              		.align	2
 1467              	.L86:
 1468 025c 0000C842 		.word	1120403456
ARM GAS  C:\Users\DWISET~1\AppData\Local\Temp\ccnysme0.s 			page 45


 1469 0260 0000803B 		.word	998244352
 1470              		.cfi_endproc
 1471              	.LFE521:
 1472              		.size	BMP280_readValue, .-BMP280_readValue
 1473              		.section	.text.main,"ax",%progbits
 1474              		.align	2
 1475              		.global	main
 1476              		.thumb
 1477              		.thumb_func
 1478              		.type	main, %function
 1479              	main:
 1480              	.LFB511:
 139:main_cm4.c    ****     __enable_irq(); /* Enable global interrupts. */
 1481              		.loc 1 139 0
 1482              		.cfi_startproc
 1483              		@ args = 0, pretend = 0, frame = 48
 1484              		@ frame_needed = 0, uses_anonymous_args = 0
 1485 0000 F0B5     		push	{r4, r5, r6, r7, lr}
 1486              		.cfi_def_cfa_offset 20
 1487              		.cfi_offset 4, -20
 1488              		.cfi_offset 5, -16
 1489              		.cfi_offset 6, -12
 1490              		.cfi_offset 7, -8
 1491              		.cfi_offset 14, -4
 1492 0002 93B0     		sub	sp, sp, #76
 1493              		.cfi_def_cfa_offset 96
 1494              	.LBB145:
 1495              	.LBB146:
 1496              		.file 3 "Generated_Source\\PSoC6\\pdl\\cmsis/include/cmsis_gcc.h"
   1:Generated_Source\PSoC6\pdl\cmsis/include/cmsis_gcc.h **** /**************************************************************************//**
   2:Generated_Source\PSoC6\pdl\cmsis/include/cmsis_gcc.h ****  * @file     cmsis_gcc.h
   3:Generated_Source\PSoC6\pdl\cmsis/include/cmsis_gcc.h ****  * @brief    CMSIS compiler GCC header file
   4:Generated_Source\PSoC6\pdl\cmsis/include/cmsis_gcc.h ****  * @version  V5.0.3
   5:Generated_Source\PSoC6\pdl\cmsis/include/cmsis_gcc.h ****  * @date     16. January 2018
   6:Generated_Source\PSoC6\pdl\cmsis/include/cmsis_gcc.h ****  ******************************************************************************/
   7:Generated_Source\PSoC6\pdl\cmsis/include/cmsis_gcc.h **** /*
   8:Generated_Source\PSoC6\pdl\cmsis/include/cmsis_gcc.h ****  * Copyright (c) 2009-2017 ARM Limited. All rights reserved.
   9:Generated_Source\PSoC6\pdl\cmsis/include/cmsis_gcc.h ****  *
  10:Generated_Source\PSoC6\pdl\cmsis/include/cmsis_gcc.h ****  * SPDX-License-Identifier: Apache-2.0
  11:Generated_Source\PSoC6\pdl\cmsis/include/cmsis_gcc.h ****  *
  12:Generated_Source\PSoC6\pdl\cmsis/include/cmsis_gcc.h ****  * Licensed under the Apache License, Version 2.0 (the License); you may
  13:Generated_Source\PSoC6\pdl\cmsis/include/cmsis_gcc.h ****  * not use this file except in compliance with the License.
  14:Generated_Source\PSoC6\pdl\cmsis/include/cmsis_gcc.h ****  * You may obtain a copy of the License at
  15:Generated_Source\PSoC6\pdl\cmsis/include/cmsis_gcc.h ****  *
  16:Generated_Source\PSoC6\pdl\cmsis/include/cmsis_gcc.h ****  * www.apache.org/licenses/LICENSE-2.0
  17:Generated_Source\PSoC6\pdl\cmsis/include/cmsis_gcc.h ****  *
  18:Generated_Source\PSoC6\pdl\cmsis/include/cmsis_gcc.h ****  * Unless required by applicable law or agreed to in writing, software
  19:Generated_Source\PSoC6\pdl\cmsis/include/cmsis_gcc.h ****  * distributed under the License is distributed on an AS IS BASIS, WITHOUT
  20:Generated_Source\PSoC6\pdl\cmsis/include/cmsis_gcc.h ****  * WARRANTIES OR CONDITIONS OF ANY KIND, either express or implied.
  21:Generated_Source\PSoC6\pdl\cmsis/include/cmsis_gcc.h ****  * See the License for the specific language governing permissions and
  22:Generated_Source\PSoC6\pdl\cmsis/include/cmsis_gcc.h ****  * limitations under the License.
  23:Generated_Source\PSoC6\pdl\cmsis/include/cmsis_gcc.h ****  */
  24:Generated_Source\PSoC6\pdl\cmsis/include/cmsis_gcc.h **** 
  25:Generated_Source\PSoC6\pdl\cmsis/include/cmsis_gcc.h **** #ifndef __CMSIS_GCC_H
  26:Generated_Source\PSoC6\pdl\cmsis/include/cmsis_gcc.h **** #define __CMSIS_GCC_H
  27:Generated_Source\PSoC6\pdl\cmsis/include/cmsis_gcc.h **** 
  28:Generated_Source\PSoC6\pdl\cmsis/include/cmsis_gcc.h **** /* ignore some GCC warnings */
ARM GAS  C:\Users\DWISET~1\AppData\Local\Temp\ccnysme0.s 			page 46


  29:Generated_Source\PSoC6\pdl\cmsis/include/cmsis_gcc.h **** #pragma GCC diagnostic push
  30:Generated_Source\PSoC6\pdl\cmsis/include/cmsis_gcc.h **** #pragma GCC diagnostic ignored "-Wsign-conversion"
  31:Generated_Source\PSoC6\pdl\cmsis/include/cmsis_gcc.h **** #pragma GCC diagnostic ignored "-Wconversion"
  32:Generated_Source\PSoC6\pdl\cmsis/include/cmsis_gcc.h **** #pragma GCC diagnostic ignored "-Wunused-parameter"
  33:Generated_Source\PSoC6\pdl\cmsis/include/cmsis_gcc.h **** 
  34:Generated_Source\PSoC6\pdl\cmsis/include/cmsis_gcc.h **** /* Fallback for __has_builtin */
  35:Generated_Source\PSoC6\pdl\cmsis/include/cmsis_gcc.h **** #ifndef __has_builtin
  36:Generated_Source\PSoC6\pdl\cmsis/include/cmsis_gcc.h ****   #define __has_builtin(x) (0)
  37:Generated_Source\PSoC6\pdl\cmsis/include/cmsis_gcc.h **** #endif
  38:Generated_Source\PSoC6\pdl\cmsis/include/cmsis_gcc.h **** 
  39:Generated_Source\PSoC6\pdl\cmsis/include/cmsis_gcc.h **** /* CMSIS compiler specific defines */
  40:Generated_Source\PSoC6\pdl\cmsis/include/cmsis_gcc.h **** #ifndef   __ASM
  41:Generated_Source\PSoC6\pdl\cmsis/include/cmsis_gcc.h ****   #define __ASM                                  __asm
  42:Generated_Source\PSoC6\pdl\cmsis/include/cmsis_gcc.h **** #endif
  43:Generated_Source\PSoC6\pdl\cmsis/include/cmsis_gcc.h **** #ifndef   __INLINE
  44:Generated_Source\PSoC6\pdl\cmsis/include/cmsis_gcc.h ****   #define __INLINE                               inline
  45:Generated_Source\PSoC6\pdl\cmsis/include/cmsis_gcc.h **** #endif
  46:Generated_Source\PSoC6\pdl\cmsis/include/cmsis_gcc.h **** #ifndef   __STATIC_INLINE
  47:Generated_Source\PSoC6\pdl\cmsis/include/cmsis_gcc.h ****   #define __STATIC_INLINE                        static inline
  48:Generated_Source\PSoC6\pdl\cmsis/include/cmsis_gcc.h **** #endif
  49:Generated_Source\PSoC6\pdl\cmsis/include/cmsis_gcc.h **** #ifndef   __STATIC_FORCEINLINE                 
  50:Generated_Source\PSoC6\pdl\cmsis/include/cmsis_gcc.h ****   #define __STATIC_FORCEINLINE                   __attribute__((always_inline)) static inline
  51:Generated_Source\PSoC6\pdl\cmsis/include/cmsis_gcc.h **** #endif                                           
  52:Generated_Source\PSoC6\pdl\cmsis/include/cmsis_gcc.h **** #ifndef   __NO_RETURN
  53:Generated_Source\PSoC6\pdl\cmsis/include/cmsis_gcc.h ****   #define __NO_RETURN                            __attribute__((__noreturn__))
  54:Generated_Source\PSoC6\pdl\cmsis/include/cmsis_gcc.h **** #endif
  55:Generated_Source\PSoC6\pdl\cmsis/include/cmsis_gcc.h **** #ifndef   __USED
  56:Generated_Source\PSoC6\pdl\cmsis/include/cmsis_gcc.h ****   #define __USED                                 __attribute__((used))
  57:Generated_Source\PSoC6\pdl\cmsis/include/cmsis_gcc.h **** #endif
  58:Generated_Source\PSoC6\pdl\cmsis/include/cmsis_gcc.h **** #ifndef   __WEAK
  59:Generated_Source\PSoC6\pdl\cmsis/include/cmsis_gcc.h ****   #define __WEAK                                 __attribute__((weak))
  60:Generated_Source\PSoC6\pdl\cmsis/include/cmsis_gcc.h **** #endif
  61:Generated_Source\PSoC6\pdl\cmsis/include/cmsis_gcc.h **** #ifndef   __PACKED
  62:Generated_Source\PSoC6\pdl\cmsis/include/cmsis_gcc.h ****   #define __PACKED                               __attribute__((packed, aligned(1)))
  63:Generated_Source\PSoC6\pdl\cmsis/include/cmsis_gcc.h **** #endif
  64:Generated_Source\PSoC6\pdl\cmsis/include/cmsis_gcc.h **** #ifndef   __PACKED_STRUCT
  65:Generated_Source\PSoC6\pdl\cmsis/include/cmsis_gcc.h ****   #define __PACKED_STRUCT                        struct __attribute__((packed, aligned(1)))
  66:Generated_Source\PSoC6\pdl\cmsis/include/cmsis_gcc.h **** #endif
  67:Generated_Source\PSoC6\pdl\cmsis/include/cmsis_gcc.h **** #ifndef   __PACKED_UNION
  68:Generated_Source\PSoC6\pdl\cmsis/include/cmsis_gcc.h ****   #define __PACKED_UNION                         union __attribute__((packed, aligned(1)))
  69:Generated_Source\PSoC6\pdl\cmsis/include/cmsis_gcc.h **** #endif
  70:Generated_Source\PSoC6\pdl\cmsis/include/cmsis_gcc.h **** #ifndef   __UNALIGNED_UINT32        /* deprecated */
  71:Generated_Source\PSoC6\pdl\cmsis/include/cmsis_gcc.h ****   #pragma GCC diagnostic push
  72:Generated_Source\PSoC6\pdl\cmsis/include/cmsis_gcc.h ****   #pragma GCC diagnostic ignored "-Wpacked"
  73:Generated_Source\PSoC6\pdl\cmsis/include/cmsis_gcc.h ****   #pragma GCC diagnostic ignored "-Wattributes"
  74:Generated_Source\PSoC6\pdl\cmsis/include/cmsis_gcc.h ****   struct __attribute__((packed)) T_UINT32 { uint32_t v; };
  75:Generated_Source\PSoC6\pdl\cmsis/include/cmsis_gcc.h ****   #pragma GCC diagnostic pop
  76:Generated_Source\PSoC6\pdl\cmsis/include/cmsis_gcc.h ****   #define __UNALIGNED_UINT32(x)                  (((struct T_UINT32 *)(x))->v)
  77:Generated_Source\PSoC6\pdl\cmsis/include/cmsis_gcc.h **** #endif
  78:Generated_Source\PSoC6\pdl\cmsis/include/cmsis_gcc.h **** #ifndef   __UNALIGNED_UINT16_WRITE
  79:Generated_Source\PSoC6\pdl\cmsis/include/cmsis_gcc.h ****   #pragma GCC diagnostic push
  80:Generated_Source\PSoC6\pdl\cmsis/include/cmsis_gcc.h ****   #pragma GCC diagnostic ignored "-Wpacked"
  81:Generated_Source\PSoC6\pdl\cmsis/include/cmsis_gcc.h ****   #pragma GCC diagnostic ignored "-Wattributes"
  82:Generated_Source\PSoC6\pdl\cmsis/include/cmsis_gcc.h ****   __PACKED_STRUCT T_UINT16_WRITE { uint16_t v; };
  83:Generated_Source\PSoC6\pdl\cmsis/include/cmsis_gcc.h ****   #pragma GCC diagnostic pop
  84:Generated_Source\PSoC6\pdl\cmsis/include/cmsis_gcc.h ****   #define __UNALIGNED_UINT16_WRITE(addr, val)    (void)((((struct T_UINT16_WRITE *)(void *)(addr))-
  85:Generated_Source\PSoC6\pdl\cmsis/include/cmsis_gcc.h **** #endif
ARM GAS  C:\Users\DWISET~1\AppData\Local\Temp\ccnysme0.s 			page 47


  86:Generated_Source\PSoC6\pdl\cmsis/include/cmsis_gcc.h **** #ifndef   __UNALIGNED_UINT16_READ
  87:Generated_Source\PSoC6\pdl\cmsis/include/cmsis_gcc.h ****   #pragma GCC diagnostic push
  88:Generated_Source\PSoC6\pdl\cmsis/include/cmsis_gcc.h ****   #pragma GCC diagnostic ignored "-Wpacked"
  89:Generated_Source\PSoC6\pdl\cmsis/include/cmsis_gcc.h ****   #pragma GCC diagnostic ignored "-Wattributes"
  90:Generated_Source\PSoC6\pdl\cmsis/include/cmsis_gcc.h ****   __PACKED_STRUCT T_UINT16_READ { uint16_t v; };
  91:Generated_Source\PSoC6\pdl\cmsis/include/cmsis_gcc.h ****   #pragma GCC diagnostic pop
  92:Generated_Source\PSoC6\pdl\cmsis/include/cmsis_gcc.h ****   #define __UNALIGNED_UINT16_READ(addr)          (((const struct T_UINT16_READ *)(const void *)(add
  93:Generated_Source\PSoC6\pdl\cmsis/include/cmsis_gcc.h **** #endif
  94:Generated_Source\PSoC6\pdl\cmsis/include/cmsis_gcc.h **** #ifndef   __UNALIGNED_UINT32_WRITE
  95:Generated_Source\PSoC6\pdl\cmsis/include/cmsis_gcc.h ****   #pragma GCC diagnostic push
  96:Generated_Source\PSoC6\pdl\cmsis/include/cmsis_gcc.h ****   #pragma GCC diagnostic ignored "-Wpacked"
  97:Generated_Source\PSoC6\pdl\cmsis/include/cmsis_gcc.h ****   #pragma GCC diagnostic ignored "-Wattributes"
  98:Generated_Source\PSoC6\pdl\cmsis/include/cmsis_gcc.h ****   __PACKED_STRUCT T_UINT32_WRITE { uint32_t v; };
  99:Generated_Source\PSoC6\pdl\cmsis/include/cmsis_gcc.h ****   #pragma GCC diagnostic pop
 100:Generated_Source\PSoC6\pdl\cmsis/include/cmsis_gcc.h ****   #define __UNALIGNED_UINT32_WRITE(addr, val)    (void)((((struct T_UINT32_WRITE *)(void *)(addr))-
 101:Generated_Source\PSoC6\pdl\cmsis/include/cmsis_gcc.h **** #endif
 102:Generated_Source\PSoC6\pdl\cmsis/include/cmsis_gcc.h **** #ifndef   __UNALIGNED_UINT32_READ
 103:Generated_Source\PSoC6\pdl\cmsis/include/cmsis_gcc.h ****   #pragma GCC diagnostic push
 104:Generated_Source\PSoC6\pdl\cmsis/include/cmsis_gcc.h ****   #pragma GCC diagnostic ignored "-Wpacked"
 105:Generated_Source\PSoC6\pdl\cmsis/include/cmsis_gcc.h ****   #pragma GCC diagnostic ignored "-Wattributes"
 106:Generated_Source\PSoC6\pdl\cmsis/include/cmsis_gcc.h ****   __PACKED_STRUCT T_UINT32_READ { uint32_t v; };
 107:Generated_Source\PSoC6\pdl\cmsis/include/cmsis_gcc.h ****   #pragma GCC diagnostic pop
 108:Generated_Source\PSoC6\pdl\cmsis/include/cmsis_gcc.h ****   #define __UNALIGNED_UINT32_READ(addr)          (((const struct T_UINT32_READ *)(const void *)(add
 109:Generated_Source\PSoC6\pdl\cmsis/include/cmsis_gcc.h **** #endif
 110:Generated_Source\PSoC6\pdl\cmsis/include/cmsis_gcc.h **** #ifndef   __ALIGNED
 111:Generated_Source\PSoC6\pdl\cmsis/include/cmsis_gcc.h ****   #define __ALIGNED(x)                           __attribute__((aligned(x)))
 112:Generated_Source\PSoC6\pdl\cmsis/include/cmsis_gcc.h **** #endif
 113:Generated_Source\PSoC6\pdl\cmsis/include/cmsis_gcc.h **** #ifndef   __RESTRICT
 114:Generated_Source\PSoC6\pdl\cmsis/include/cmsis_gcc.h ****   #define __RESTRICT                             __restrict
 115:Generated_Source\PSoC6\pdl\cmsis/include/cmsis_gcc.h **** #endif
 116:Generated_Source\PSoC6\pdl\cmsis/include/cmsis_gcc.h **** 
 117:Generated_Source\PSoC6\pdl\cmsis/include/cmsis_gcc.h **** 
 118:Generated_Source\PSoC6\pdl\cmsis/include/cmsis_gcc.h **** /* ###########################  Core Function Access  ########################### */
 119:Generated_Source\PSoC6\pdl\cmsis/include/cmsis_gcc.h **** /** \ingroup  CMSIS_Core_FunctionInterface
 120:Generated_Source\PSoC6\pdl\cmsis/include/cmsis_gcc.h ****     \defgroup CMSIS_Core_RegAccFunctions CMSIS Core Register Access Functions
 121:Generated_Source\PSoC6\pdl\cmsis/include/cmsis_gcc.h ****   @{
 122:Generated_Source\PSoC6\pdl\cmsis/include/cmsis_gcc.h ****  */
 123:Generated_Source\PSoC6\pdl\cmsis/include/cmsis_gcc.h **** 
 124:Generated_Source\PSoC6\pdl\cmsis/include/cmsis_gcc.h **** /**
 125:Generated_Source\PSoC6\pdl\cmsis/include/cmsis_gcc.h ****   \brief   Enable IRQ Interrupts
 126:Generated_Source\PSoC6\pdl\cmsis/include/cmsis_gcc.h ****   \details Enables IRQ interrupts by clearing the I-bit in the CPSR.
 127:Generated_Source\PSoC6\pdl\cmsis/include/cmsis_gcc.h ****            Can only be executed in Privileged modes.
 128:Generated_Source\PSoC6\pdl\cmsis/include/cmsis_gcc.h ****  */
 129:Generated_Source\PSoC6\pdl\cmsis/include/cmsis_gcc.h **** __STATIC_FORCEINLINE void __enable_irq(void)
 130:Generated_Source\PSoC6\pdl\cmsis/include/cmsis_gcc.h **** {
 131:Generated_Source\PSoC6\pdl\cmsis/include/cmsis_gcc.h ****   __ASM volatile ("cpsie i" : : : "memory");
 1497              		.loc 3 131 0
 1498              		.syntax unified
 1499              	@ 131 "Generated_Source\PSoC6\pdl\cmsis/include/cmsis_gcc.h" 1
 1500 0004 62B6     		cpsie i
 1501              	@ 0 "" 2
 1502              		.thumb
 1503              		.syntax unified
 1504              	.LBE146:
 1505              	.LBE145:
 143:main_cm4.c    ****     
 1506              		.loc 1 143 0
ARM GAS  C:\Users\DWISET~1\AppData\Local\Temp\ccnysme0.s 			page 48


 1507 0006 FFF7FEFF 		bl	UART_Start
 1508              	.LVL171:
 1509              	.LBB147:
 1510              	.LBB148:
 1511              	.LBB149:
 1512              		.file 4 "Generated_Source\\PSoC6\\pdl\\drivers/peripheral/scb/cy_scb_uart.h"
   1:Generated_Source\PSoC6\pdl\drivers/peripheral/scb/cy_scb_uart.h **** /***************************************************************************//**
   2:Generated_Source\PSoC6\pdl\drivers/peripheral/scb/cy_scb_uart.h **** * \file cy_scb_uart.h
   3:Generated_Source\PSoC6\pdl\drivers/peripheral/scb/cy_scb_uart.h **** * \version 2.30
   4:Generated_Source\PSoC6\pdl\drivers/peripheral/scb/cy_scb_uart.h **** *
   5:Generated_Source\PSoC6\pdl\drivers/peripheral/scb/cy_scb_uart.h **** * Provides UART API declarations of the SCB driver.
   6:Generated_Source\PSoC6\pdl\drivers/peripheral/scb/cy_scb_uart.h **** *
   7:Generated_Source\PSoC6\pdl\drivers/peripheral/scb/cy_scb_uart.h **** ********************************************************************************
   8:Generated_Source\PSoC6\pdl\drivers/peripheral/scb/cy_scb_uart.h **** * \copyright
   9:Generated_Source\PSoC6\pdl\drivers/peripheral/scb/cy_scb_uart.h **** * Copyright 2016-2021, Cypress Semiconductor Corporation.  All rights reserved.
  10:Generated_Source\PSoC6\pdl\drivers/peripheral/scb/cy_scb_uart.h **** * You may use this file only in accordance with the license, terms, conditions,
  11:Generated_Source\PSoC6\pdl\drivers/peripheral/scb/cy_scb_uart.h **** * disclaimers, and limitations in the end user license agreement accompanying
  12:Generated_Source\PSoC6\pdl\drivers/peripheral/scb/cy_scb_uart.h **** * the software package with which this file was provided.
  13:Generated_Source\PSoC6\pdl\drivers/peripheral/scb/cy_scb_uart.h **** *******************************************************************************/
  14:Generated_Source\PSoC6\pdl\drivers/peripheral/scb/cy_scb_uart.h **** 
  15:Generated_Source\PSoC6\pdl\drivers/peripheral/scb/cy_scb_uart.h **** /**
  16:Generated_Source\PSoC6\pdl\drivers/peripheral/scb/cy_scb_uart.h **** * \addtogroup group_scb_uart
  17:Generated_Source\PSoC6\pdl\drivers/peripheral/scb/cy_scb_uart.h **** * \{
  18:Generated_Source\PSoC6\pdl\drivers/peripheral/scb/cy_scb_uart.h **** * Driver API for UART
  19:Generated_Source\PSoC6\pdl\drivers/peripheral/scb/cy_scb_uart.h **** *
  20:Generated_Source\PSoC6\pdl\drivers/peripheral/scb/cy_scb_uart.h **** * The functions and other declarations used in this part of the driver are in
  21:Generated_Source\PSoC6\pdl\drivers/peripheral/scb/cy_scb_uart.h **** * cy_scb_uart.h. You can also include cy_pdl.h (ModusToolbox only) to get access
  22:Generated_Source\PSoC6\pdl\drivers/peripheral/scb/cy_scb_uart.h **** * to all functions and declarations in the PDL.
  23:Generated_Source\PSoC6\pdl\drivers/peripheral/scb/cy_scb_uart.h **** *
  24:Generated_Source\PSoC6\pdl\drivers/peripheral/scb/cy_scb_uart.h **** * The Universal Asynchronous Receiver/Transmitter (UART) protocol is an
  25:Generated_Source\PSoC6\pdl\drivers/peripheral/scb/cy_scb_uart.h **** * asynchronous serial interface protocol. UART communication is typically
  26:Generated_Source\PSoC6\pdl\drivers/peripheral/scb/cy_scb_uart.h **** * point-to-point. The UART interface consists of two signals:
  27:Generated_Source\PSoC6\pdl\drivers/peripheral/scb/cy_scb_uart.h **** * * TX: Transmitter output
  28:Generated_Source\PSoC6\pdl\drivers/peripheral/scb/cy_scb_uart.h **** * * RX: Receiver input
  29:Generated_Source\PSoC6\pdl\drivers/peripheral/scb/cy_scb_uart.h **** *
  30:Generated_Source\PSoC6\pdl\drivers/peripheral/scb/cy_scb_uart.h **** * Additionally, two side-band signals are used to implement flow control in
  31:Generated_Source\PSoC6\pdl\drivers/peripheral/scb/cy_scb_uart.h **** * UART. Note that the flow control applies only to TX functionality.
  32:Generated_Source\PSoC6\pdl\drivers/peripheral/scb/cy_scb_uart.h **** * * Clear to Send (CTS): This is an input signal to the transmitter.
  33:Generated_Source\PSoC6\pdl\drivers/peripheral/scb/cy_scb_uart.h **** *   When active, it indicates that the slave is ready for the master to
  34:Generated_Source\PSoC6\pdl\drivers/peripheral/scb/cy_scb_uart.h **** *   transmit data.
  35:Generated_Source\PSoC6\pdl\drivers/peripheral/scb/cy_scb_uart.h **** * * Ready to Send (RTS): This is an output signal from the receiver. When
  36:Generated_Source\PSoC6\pdl\drivers/peripheral/scb/cy_scb_uart.h **** *   active, it indicates that the receiver is ready to receive data
  37:Generated_Source\PSoC6\pdl\drivers/peripheral/scb/cy_scb_uart.h **** *
  38:Generated_Source\PSoC6\pdl\drivers/peripheral/scb/cy_scb_uart.h **** * Features:
  39:Generated_Source\PSoC6\pdl\drivers/peripheral/scb/cy_scb_uart.h **** * * Supports UART protocol
  40:Generated_Source\PSoC6\pdl\drivers/peripheral/scb/cy_scb_uart.h **** *   * Standard UART
  41:Generated_Source\PSoC6\pdl\drivers/peripheral/scb/cy_scb_uart.h **** *   * Multi-processor mode
  42:Generated_Source\PSoC6\pdl\drivers/peripheral/scb/cy_scb_uart.h **** * * SmartCard (ISO7816) reader
  43:Generated_Source\PSoC6\pdl\drivers/peripheral/scb/cy_scb_uart.h **** * * IrDA
  44:Generated_Source\PSoC6\pdl\drivers/peripheral/scb/cy_scb_uart.h **** * * Data frame size programmable from 4 to 16 bits
  45:Generated_Source\PSoC6\pdl\drivers/peripheral/scb/cy_scb_uart.h **** * * Programmable number of STOP bits, which can be set in terms of half bit
  46:Generated_Source\PSoC6\pdl\drivers/peripheral/scb/cy_scb_uart.h **** *   periods between 1 and 4
  47:Generated_Source\PSoC6\pdl\drivers/peripheral/scb/cy_scb_uart.h **** * * Parity support (odd and even parity)
  48:Generated_Source\PSoC6\pdl\drivers/peripheral/scb/cy_scb_uart.h **** * * Median filter on Rx input
  49:Generated_Source\PSoC6\pdl\drivers/peripheral/scb/cy_scb_uart.h **** * * Programmable oversampling
  50:Generated_Source\PSoC6\pdl\drivers/peripheral/scb/cy_scb_uart.h **** * * Start skipping
  51:Generated_Source\PSoC6\pdl\drivers/peripheral/scb/cy_scb_uart.h **** *
ARM GAS  C:\Users\DWISET~1\AppData\Local\Temp\ccnysme0.s 			page 49


  52:Generated_Source\PSoC6\pdl\drivers/peripheral/scb/cy_scb_uart.h **** ********************************************************************************
  53:Generated_Source\PSoC6\pdl\drivers/peripheral/scb/cy_scb_uart.h **** * \section group_scb_uart_configuration Configuration Considerations
  54:Generated_Source\PSoC6\pdl\drivers/peripheral/scb/cy_scb_uart.h **** ********************************************************************************
  55:Generated_Source\PSoC6\pdl\drivers/peripheral/scb/cy_scb_uart.h **** * The UART driver configuration can be divided to number of sequential
  56:Generated_Source\PSoC6\pdl\drivers/peripheral/scb/cy_scb_uart.h **** * steps listed below:
  57:Generated_Source\PSoC6\pdl\drivers/peripheral/scb/cy_scb_uart.h **** * * \ref group_scb_uart_config
  58:Generated_Source\PSoC6\pdl\drivers/peripheral/scb/cy_scb_uart.h **** * * \ref group_scb_uart_pins
  59:Generated_Source\PSoC6\pdl\drivers/peripheral/scb/cy_scb_uart.h **** * * \ref group_scb_uart_clock
  60:Generated_Source\PSoC6\pdl\drivers/peripheral/scb/cy_scb_uart.h **** * * \ref group_scb_uart_data_rate
  61:Generated_Source\PSoC6\pdl\drivers/peripheral/scb/cy_scb_uart.h **** * * \ref group_scb_uart_intr
  62:Generated_Source\PSoC6\pdl\drivers/peripheral/scb/cy_scb_uart.h **** * * \ref group_scb_uart_enable
  63:Generated_Source\PSoC6\pdl\drivers/peripheral/scb/cy_scb_uart.h **** *
  64:Generated_Source\PSoC6\pdl\drivers/peripheral/scb/cy_scb_uart.h **** * \note
  65:Generated_Source\PSoC6\pdl\drivers/peripheral/scb/cy_scb_uart.h **** * UART driver is built on top of the SCB hardware block. The SCB5 instance is
  66:Generated_Source\PSoC6\pdl\drivers/peripheral/scb/cy_scb_uart.h **** * used as an example for all code snippets. Modify the code to match your
  67:Generated_Source\PSoC6\pdl\drivers/peripheral/scb/cy_scb_uart.h **** * design.
  68:Generated_Source\PSoC6\pdl\drivers/peripheral/scb/cy_scb_uart.h **** *
  69:Generated_Source\PSoC6\pdl\drivers/peripheral/scb/cy_scb_uart.h **** ********************************************************************************
  70:Generated_Source\PSoC6\pdl\drivers/peripheral/scb/cy_scb_uart.h **** * \subsection group_scb_uart_config Configure UART
  71:Generated_Source\PSoC6\pdl\drivers/peripheral/scb/cy_scb_uart.h **** ********************************************************************************
  72:Generated_Source\PSoC6\pdl\drivers/peripheral/scb/cy_scb_uart.h **** * To set up the UART driver, provide the configuration parameters in the
  73:Generated_Source\PSoC6\pdl\drivers/peripheral/scb/cy_scb_uart.h **** * \ref cy_stc_scb_uart_config_t structure. For example: provide uartMode,
  74:Generated_Source\PSoC6\pdl\drivers/peripheral/scb/cy_scb_uart.h **** * oversample, dataWidth, enableMsbFirst, parity, and stopBits. The other
  75:Generated_Source\PSoC6\pdl\drivers/peripheral/scb/cy_scb_uart.h **** * parameters are optional. To initialize the driver, call \ref Cy_SCB_UART_Init
  76:Generated_Source\PSoC6\pdl\drivers/peripheral/scb/cy_scb_uart.h **** * function providing a pointer to the populated \ref cy_stc_scb_uart_config_t
  77:Generated_Source\PSoC6\pdl\drivers/peripheral/scb/cy_scb_uart.h **** * structure and the allocated \ref cy_stc_scb_uart_context_t structure.
  78:Generated_Source\PSoC6\pdl\drivers/peripheral/scb/cy_scb_uart.h **** *
  79:Generated_Source\PSoC6\pdl\drivers/peripheral/scb/cy_scb_uart.h **** * \snippet SCB_CompDatasheet_sut_01_revA.cydsn\uart_snippets.c UART_CFG
  80:Generated_Source\PSoC6\pdl\drivers/peripheral/scb/cy_scb_uart.h **** *
  81:Generated_Source\PSoC6\pdl\drivers/peripheral/scb/cy_scb_uart.h **** ********************************************************************************
  82:Generated_Source\PSoC6\pdl\drivers/peripheral/scb/cy_scb_uart.h **** * \subsection group_scb_uart_pins Assign and Configure Pins
  83:Generated_Source\PSoC6\pdl\drivers/peripheral/scb/cy_scb_uart.h **** ********************************************************************************
  84:Generated_Source\PSoC6\pdl\drivers/peripheral/scb/cy_scb_uart.h **** * Only dedicated SCB pins can be used for UART operation. The HSIOM
  85:Generated_Source\PSoC6\pdl\drivers/peripheral/scb/cy_scb_uart.h **** * register must be configured to connect dedicated SCB UART pins to the
  86:Generated_Source\PSoC6\pdl\drivers/peripheral/scb/cy_scb_uart.h **** * SCB block. Also, the UART output pins must be configured in Strong Drive
  87:Generated_Source\PSoC6\pdl\drivers/peripheral/scb/cy_scb_uart.h **** * Input Off mode and UART input pins in Digital High-Z:
  88:Generated_Source\PSoC6\pdl\drivers/peripheral/scb/cy_scb_uart.h **** *
  89:Generated_Source\PSoC6\pdl\drivers/peripheral/scb/cy_scb_uart.h **** * \snippet SCB_CompDatasheet_sut_01_revA.cydsn\uart_snippets.c UART_CFG_PINS
  90:Generated_Source\PSoC6\pdl\drivers/peripheral/scb/cy_scb_uart.h **** *
  91:Generated_Source\PSoC6\pdl\drivers/peripheral/scb/cy_scb_uart.h **** ********************************************************************************
  92:Generated_Source\PSoC6\pdl\drivers/peripheral/scb/cy_scb_uart.h **** * \subsection group_scb_uart_clock Assign Clock Divider
  93:Generated_Source\PSoC6\pdl\drivers/peripheral/scb/cy_scb_uart.h **** ********************************************************************************
  94:Generated_Source\PSoC6\pdl\drivers/peripheral/scb/cy_scb_uart.h **** * A clock source must be connected to the SCB block to oversample input and
  95:Generated_Source\PSoC6\pdl\drivers/peripheral/scb/cy_scb_uart.h **** * output signals, in this document this clock will be referred as clk_scb.
  96:Generated_Source\PSoC6\pdl\drivers/peripheral/scb/cy_scb_uart.h **** * You must use one of available integer or fractional dividers. Use the
  97:Generated_Source\PSoC6\pdl\drivers/peripheral/scb/cy_scb_uart.h **** * \ref group_sysclk driver API to do this.
  98:Generated_Source\PSoC6\pdl\drivers/peripheral/scb/cy_scb_uart.h **** *
  99:Generated_Source\PSoC6\pdl\drivers/peripheral/scb/cy_scb_uart.h **** * \snippet SCB_CompDatasheet_sut_01_revA.cydsn\uart_snippets.c UART_CFG_ASSIGN_CLOCK
 100:Generated_Source\PSoC6\pdl\drivers/peripheral/scb/cy_scb_uart.h **** *
 101:Generated_Source\PSoC6\pdl\drivers/peripheral/scb/cy_scb_uart.h **** ********************************************************************************
 102:Generated_Source\PSoC6\pdl\drivers/peripheral/scb/cy_scb_uart.h **** * \subsection group_scb_uart_data_rate Configure Baud Rate
 103:Generated_Source\PSoC6\pdl\drivers/peripheral/scb/cy_scb_uart.h **** ********************************************************************************
 104:Generated_Source\PSoC6\pdl\drivers/peripheral/scb/cy_scb_uart.h **** * To get the UART to operate with the desired baud rate, the clk_scb frequency
 105:Generated_Source\PSoC6\pdl\drivers/peripheral/scb/cy_scb_uart.h **** * and the oversample must be configured. Use the \ref group_sysclk driver API
 106:Generated_Source\PSoC6\pdl\drivers/peripheral/scb/cy_scb_uart.h **** * to configure clk_scb frequency. Set the <em><b>oversample parameter
 107:Generated_Source\PSoC6\pdl\drivers/peripheral/scb/cy_scb_uart.h **** * in configuration structure</b></em> to define the number of the SCB clocks
 108:Generated_Source\PSoC6\pdl\drivers/peripheral/scb/cy_scb_uart.h **** * within one UART bit-time.
ARM GAS  C:\Users\DWISET~1\AppData\Local\Temp\ccnysme0.s 			page 50


 109:Generated_Source\PSoC6\pdl\drivers/peripheral/scb/cy_scb_uart.h **** *
 110:Generated_Source\PSoC6\pdl\drivers/peripheral/scb/cy_scb_uart.h **** * \snippet SCB_CompDatasheet_sut_01_revA.cydsn\uart_snippets.c UART_CFG_DATA_RATE
 111:Generated_Source\PSoC6\pdl\drivers/peripheral/scb/cy_scb_uart.h **** *
 112:Generated_Source\PSoC6\pdl\drivers/peripheral/scb/cy_scb_uart.h **** * <b>Refer to the technical reference manual (TRM) section UART sub-section
 113:Generated_Source\PSoC6\pdl\drivers/peripheral/scb/cy_scb_uart.h **** * Clocking and Oversampling to get information about how to configure the UART to run with
 114:Generated_Source\PSoC6\pdl\drivers/peripheral/scb/cy_scb_uart.h **** * desired baud rate.</b>
 115:Generated_Source\PSoC6\pdl\drivers/peripheral/scb/cy_scb_uart.h **** *
 116:Generated_Source\PSoC6\pdl\drivers/peripheral/scb/cy_scb_uart.h **** ********************************************************************************
 117:Generated_Source\PSoC6\pdl\drivers/peripheral/scb/cy_scb_uart.h **** * \subsection group_scb_uart_intr Configure Interrupt
 118:Generated_Source\PSoC6\pdl\drivers/peripheral/scb/cy_scb_uart.h **** ********************************************************************************
 119:Generated_Source\PSoC6\pdl\drivers/peripheral/scb/cy_scb_uart.h **** * The interrupt is optional for the UART operation. To configure interrupt
 120:Generated_Source\PSoC6\pdl\drivers/peripheral/scb/cy_scb_uart.h **** * the \ref Cy_SCB_UART_Interrupt function must be called in the interrupt
 121:Generated_Source\PSoC6\pdl\drivers/peripheral/scb/cy_scb_uart.h **** * handler for the selected SCB instance. Also, this interrupt must be enabled
 122:Generated_Source\PSoC6\pdl\drivers/peripheral/scb/cy_scb_uart.h **** * in the NVIC.
 123:Generated_Source\PSoC6\pdl\drivers/peripheral/scb/cy_scb_uart.h **** * The interrupt must be configured when \ref group_scb_uart_hl will be used.
 124:Generated_Source\PSoC6\pdl\drivers/peripheral/scb/cy_scb_uart.h **** *
 125:Generated_Source\PSoC6\pdl\drivers/peripheral/scb/cy_scb_uart.h **** * \snippet SCB_CompDatasheet_sut_01_revA.cydsn\uart_snippets.c UART_INTR_A
 126:Generated_Source\PSoC6\pdl\drivers/peripheral/scb/cy_scb_uart.h **** * \snippet SCB_CompDatasheet_sut_01_revA.cydsn\uart_snippets.c UART_INTR_B
 127:Generated_Source\PSoC6\pdl\drivers/peripheral/scb/cy_scb_uart.h **** *
 128:Generated_Source\PSoC6\pdl\drivers/peripheral/scb/cy_scb_uart.h **** ********************************************************************************
 129:Generated_Source\PSoC6\pdl\drivers/peripheral/scb/cy_scb_uart.h **** * \subsection group_scb_uart_enable Enable UART
 130:Generated_Source\PSoC6\pdl\drivers/peripheral/scb/cy_scb_uart.h **** ********************************************************************************
 131:Generated_Source\PSoC6\pdl\drivers/peripheral/scb/cy_scb_uart.h **** * Finally, enable the UART operation by calling \ref Cy_SCB_UART_Enable.
 132:Generated_Source\PSoC6\pdl\drivers/peripheral/scb/cy_scb_uart.h **** *
 133:Generated_Source\PSoC6\pdl\drivers/peripheral/scb/cy_scb_uart.h **** * \snippet SCB_CompDatasheet_sut_01_revA.cydsn\uart_snippets.c UART_ENABLE
 134:Generated_Source\PSoC6\pdl\drivers/peripheral/scb/cy_scb_uart.h **** *
 135:Generated_Source\PSoC6\pdl\drivers/peripheral/scb/cy_scb_uart.h **** ********************************************************************************
 136:Generated_Source\PSoC6\pdl\drivers/peripheral/scb/cy_scb_uart.h **** * \section group_scb_uart_use_cases Common Use Cases
 137:Generated_Source\PSoC6\pdl\drivers/peripheral/scb/cy_scb_uart.h **** ********************************************************************************
 138:Generated_Source\PSoC6\pdl\drivers/peripheral/scb/cy_scb_uart.h **** * The UART API is divided into two categories: \ref group_scb_uart_low_level_functions
 139:Generated_Source\PSoC6\pdl\drivers/peripheral/scb/cy_scb_uart.h **** * and \ref group_scb_uart_high_level_functions. \n
 140:Generated_Source\PSoC6\pdl\drivers/peripheral/scb/cy_scb_uart.h **** * <em>Do not mix <b>High-Level</b> and <b>Low-Level</b> API because a Low-Level
 141:Generated_Source\PSoC6\pdl\drivers/peripheral/scb/cy_scb_uart.h **** * API can adversely affect the operation of a High-Level API.</em>
 142:Generated_Source\PSoC6\pdl\drivers/peripheral/scb/cy_scb_uart.h **** *
 143:Generated_Source\PSoC6\pdl\drivers/peripheral/scb/cy_scb_uart.h **** ********************************************************************************
 144:Generated_Source\PSoC6\pdl\drivers/peripheral/scb/cy_scb_uart.h **** * \subsection group_scb_uart_ll Low-Level API
 145:Generated_Source\PSoC6\pdl\drivers/peripheral/scb/cy_scb_uart.h **** ********************************************************************************
 146:Generated_Source\PSoC6\pdl\drivers/peripheral/scb/cy_scb_uart.h **** * The \ref group_scb_uart_low_level_functions functions allow
 147:Generated_Source\PSoC6\pdl\drivers/peripheral/scb/cy_scb_uart.h **** * interacting directly with the hardware and do not use \ref Cy_SCB_UART_Interrupt.
 148:Generated_Source\PSoC6\pdl\drivers/peripheral/scb/cy_scb_uart.h **** * These functions do not require context for operation. Thus, NULL can be
 149:Generated_Source\PSoC6\pdl\drivers/peripheral/scb/cy_scb_uart.h **** * passed for context parameter in \ref Cy_SCB_UART_Init and \ref Cy_SCB_UART_Disable
 150:Generated_Source\PSoC6\pdl\drivers/peripheral/scb/cy_scb_uart.h **** * instead of a pointer to the context structure.
 151:Generated_Source\PSoC6\pdl\drivers/peripheral/scb/cy_scb_uart.h **** *
 152:Generated_Source\PSoC6\pdl\drivers/peripheral/scb/cy_scb_uart.h **** * * To write data into the TX FIFO, use one of the provided functions:
 153:Generated_Source\PSoC6\pdl\drivers/peripheral/scb/cy_scb_uart.h **** *   \ref Cy_SCB_UART_Put, \ref Cy_SCB_UART_PutArray,
 154:Generated_Source\PSoC6\pdl\drivers/peripheral/scb/cy_scb_uart.h **** *   \ref Cy_SCB_UART_PutArrayBlocking or \ref Cy_SCB_UART_PutString.
 155:Generated_Source\PSoC6\pdl\drivers/peripheral/scb/cy_scb_uart.h **** *   Note that putting data into the TX FIFO starts data transfer.
 156:Generated_Source\PSoC6\pdl\drivers/peripheral/scb/cy_scb_uart.h **** *
 157:Generated_Source\PSoC6\pdl\drivers/peripheral/scb/cy_scb_uart.h **** * * To read data from the RX FIFO, use one of the provided functions:
 158:Generated_Source\PSoC6\pdl\drivers/peripheral/scb/cy_scb_uart.h **** *   \ref Cy_SCB_UART_Get, \ref Cy_SCB_UART_GetArray or
 159:Generated_Source\PSoC6\pdl\drivers/peripheral/scb/cy_scb_uart.h **** *   \ref Cy_SCB_UART_GetArrayBlocking.
 160:Generated_Source\PSoC6\pdl\drivers/peripheral/scb/cy_scb_uart.h **** *
 161:Generated_Source\PSoC6\pdl\drivers/peripheral/scb/cy_scb_uart.h **** * * The statuses can be polled using: \ref Cy_SCB_UART_GetRxFifoStatus and
 162:Generated_Source\PSoC6\pdl\drivers/peripheral/scb/cy_scb_uart.h **** *   \ref Cy_SCB_UART_GetTxFifoStatus.
 163:Generated_Source\PSoC6\pdl\drivers/peripheral/scb/cy_scb_uart.h **** *   <em>The statuses are <b>W1C (Write 1 to Clear)</b> and after a status
 164:Generated_Source\PSoC6\pdl\drivers/peripheral/scb/cy_scb_uart.h **** *   is set, it must be cleared.</em> Note that there are statuses evaluated as level.
 165:Generated_Source\PSoC6\pdl\drivers/peripheral/scb/cy_scb_uart.h **** *   These statuses remain set until an event is true. Therefore, after the clear
ARM GAS  C:\Users\DWISET~1\AppData\Local\Temp\ccnysme0.s 			page 51


 166:Generated_Source\PSoC6\pdl\drivers/peripheral/scb/cy_scb_uart.h **** *   operation, the status is cleared but then it is restored (if event is still
 167:Generated_Source\PSoC6\pdl\drivers/peripheral/scb/cy_scb_uart.h **** *   true).
 168:Generated_Source\PSoC6\pdl\drivers/peripheral/scb/cy_scb_uart.h **** *   Also, the following functions can be used for polling as well
 169:Generated_Source\PSoC6\pdl\drivers/peripheral/scb/cy_scb_uart.h **** *   \ref Cy_SCB_UART_IsTxComplete, \ref Cy_SCB_UART_GetNumInRxFifo and
 170:Generated_Source\PSoC6\pdl\drivers/peripheral/scb/cy_scb_uart.h **** *   \ref Cy_SCB_UART_GetNumInTxFifo.
 171:Generated_Source\PSoC6\pdl\drivers/peripheral/scb/cy_scb_uart.h **** *
 172:Generated_Source\PSoC6\pdl\drivers/peripheral/scb/cy_scb_uart.h **** * \snippet SCB_CompDatasheet_sut_01_revA.cydsn\uart_snippets.c UART_TRANSMIT_DATA_LL
 173:Generated_Source\PSoC6\pdl\drivers/peripheral/scb/cy_scb_uart.h **** *
 174:Generated_Source\PSoC6\pdl\drivers/peripheral/scb/cy_scb_uart.h **** ********************************************************************************
 175:Generated_Source\PSoC6\pdl\drivers/peripheral/scb/cy_scb_uart.h **** * \subsection group_scb_uart_hl High-Level API
 176:Generated_Source\PSoC6\pdl\drivers/peripheral/scb/cy_scb_uart.h **** ********************************************************************************
 177:Generated_Source\PSoC6\pdl\drivers/peripheral/scb/cy_scb_uart.h **** * The \ref group_scb_uart_high_level_functions API use \ref Cy_SCB_UART_Interrupt
 178:Generated_Source\PSoC6\pdl\drivers/peripheral/scb/cy_scb_uart.h **** * to execute the transfer. Call \ref Cy_SCB_UART_Transmit to start transmission.
 179:Generated_Source\PSoC6\pdl\drivers/peripheral/scb/cy_scb_uart.h **** * Call \ref Cy_SCB_UART_Receive to start receive operation. After the
 180:Generated_Source\PSoC6\pdl\drivers/peripheral/scb/cy_scb_uart.h **** * operation is started the \ref Cy_SCB_UART_Interrupt handles the data
 181:Generated_Source\PSoC6\pdl\drivers/peripheral/scb/cy_scb_uart.h **** * transfer until its completion.
 182:Generated_Source\PSoC6\pdl\drivers/peripheral/scb/cy_scb_uart.h **** * Therefore \ref Cy_SCB_UART_Interrupt must be called inside the user
 183:Generated_Source\PSoC6\pdl\drivers/peripheral/scb/cy_scb_uart.h **** * interrupt handler to make the High-Level API work. To monitor status
 184:Generated_Source\PSoC6\pdl\drivers/peripheral/scb/cy_scb_uart.h **** * of transmit operation, use \ref Cy_SCB_UART_GetTransmitStatus and
 185:Generated_Source\PSoC6\pdl\drivers/peripheral/scb/cy_scb_uart.h **** * \ref Cy_SCB_UART_GetReceiveStatus to monitor receive status appropriately.
 186:Generated_Source\PSoC6\pdl\drivers/peripheral/scb/cy_scb_uart.h **** * Alternatively use \ref Cy_SCB_UART_RegisterCallback to register callback
 187:Generated_Source\PSoC6\pdl\drivers/peripheral/scb/cy_scb_uart.h **** * function to be notified about \ref group_scb_uart_macros_callback_events.
 188:Generated_Source\PSoC6\pdl\drivers/peripheral/scb/cy_scb_uart.h **** *
 189:Generated_Source\PSoC6\pdl\drivers/peripheral/scb/cy_scb_uart.h **** * <b>Receive Operation</b>
 190:Generated_Source\PSoC6\pdl\drivers/peripheral/scb/cy_scb_uart.h **** * \snippet SCB_CompDatasheet_sut_01_revA.cydsn\uart_snippets.c UART_RECEIVE_DATA_HL
 191:Generated_Source\PSoC6\pdl\drivers/peripheral/scb/cy_scb_uart.h **** *
 192:Generated_Source\PSoC6\pdl\drivers/peripheral/scb/cy_scb_uart.h **** * <b>Transmit Operation</b>
 193:Generated_Source\PSoC6\pdl\drivers/peripheral/scb/cy_scb_uart.h **** * \snippet SCB_CompDatasheet_sut_01_revA.cydsn\uart_snippets.c UART_TRANSMIT_DATA_HL
 194:Generated_Source\PSoC6\pdl\drivers/peripheral/scb/cy_scb_uart.h **** *
 195:Generated_Source\PSoC6\pdl\drivers/peripheral/scb/cy_scb_uart.h **** * There is also capability to insert a receive ring buffer that operates between
 196:Generated_Source\PSoC6\pdl\drivers/peripheral/scb/cy_scb_uart.h **** * the RX FIFO and the user buffer. The received data is copied into the ring
 197:Generated_Source\PSoC6\pdl\drivers/peripheral/scb/cy_scb_uart.h **** * buffer from the RX FIFO. This process runs in the background after the ring
 198:Generated_Source\PSoC6\pdl\drivers/peripheral/scb/cy_scb_uart.h **** * buffer operation is started by \ref Cy_SCB_UART_StartRingBuffer.
 199:Generated_Source\PSoC6\pdl\drivers/peripheral/scb/cy_scb_uart.h **** * When \ref Cy_SCB_UART_Receive is called, it first reads data from the ring
 200:Generated_Source\PSoC6\pdl\drivers/peripheral/scb/cy_scb_uart.h **** * buffer and then sets up an interrupt to receive more data if the required
 201:Generated_Source\PSoC6\pdl\drivers/peripheral/scb/cy_scb_uart.h **** * amount has not yet been read.
 202:Generated_Source\PSoC6\pdl\drivers/peripheral/scb/cy_scb_uart.h **** *
 203:Generated_Source\PSoC6\pdl\drivers/peripheral/scb/cy_scb_uart.h **** ********************************************************************************
 204:Generated_Source\PSoC6\pdl\drivers/peripheral/scb/cy_scb_uart.h **** * \section group_scb_uart_dma_trig DMA Trigger
 205:Generated_Source\PSoC6\pdl\drivers/peripheral/scb/cy_scb_uart.h **** ********************************************************************************
 206:Generated_Source\PSoC6\pdl\drivers/peripheral/scb/cy_scb_uart.h **** * The SCB provides TX and RX output trigger signals that can be routed to the
 207:Generated_Source\PSoC6\pdl\drivers/peripheral/scb/cy_scb_uart.h **** * DMA controller inputs. These signals are assigned based on the data availability
 208:Generated_Source\PSoC6\pdl\drivers/peripheral/scb/cy_scb_uart.h **** * in the TX and RX FIFOs appropriately.
 209:Generated_Source\PSoC6\pdl\drivers/peripheral/scb/cy_scb_uart.h **** *
 210:Generated_Source\PSoC6\pdl\drivers/peripheral/scb/cy_scb_uart.h **** * * The RX trigger signal is active while the number of data
 211:Generated_Source\PSoC6\pdl\drivers/peripheral/scb/cy_scb_uart.h **** *   elements in the RX FIFO is greater than the value of RX FIFO level. Use
 212:Generated_Source\PSoC6\pdl\drivers/peripheral/scb/cy_scb_uart.h **** *   function \ref Cy_SCB_SetRxFifoLevel or set configuration structure
 213:Generated_Source\PSoC6\pdl\drivers/peripheral/scb/cy_scb_uart.h **** *   rxFifoTriggerLevel parameter to configure RX FIFO level value. \n
 214:Generated_Source\PSoC6\pdl\drivers/peripheral/scb/cy_scb_uart.h **** *   <em>For example, the RX FIFO has 8 data elements and the RX FIFO level is 0.
 215:Generated_Source\PSoC6\pdl\drivers/peripheral/scb/cy_scb_uart.h **** *   The RX trigger signal is active until DMA reads all data from
 216:Generated_Source\PSoC6\pdl\drivers/peripheral/scb/cy_scb_uart.h **** *   the RX FIFO.</em>
 217:Generated_Source\PSoC6\pdl\drivers/peripheral/scb/cy_scb_uart.h **** *
 218:Generated_Source\PSoC6\pdl\drivers/peripheral/scb/cy_scb_uart.h **** * * The TX trigger signal is active while the number of data elements
 219:Generated_Source\PSoC6\pdl\drivers/peripheral/scb/cy_scb_uart.h **** *   in the TX FIFO is less than the value of TX FIFO level. Use function
 220:Generated_Source\PSoC6\pdl\drivers/peripheral/scb/cy_scb_uart.h **** *   \ref Cy_SCB_SetTxFifoLevel or set configuration structure txFifoTriggerLevel
 221:Generated_Source\PSoC6\pdl\drivers/peripheral/scb/cy_scb_uart.h **** *   parameter to configure TX FIFO level value. \n
 222:Generated_Source\PSoC6\pdl\drivers/peripheral/scb/cy_scb_uart.h **** *   <em>For example, the TX FIFO has 0 data elements (empty) and the TX FIFO level
ARM GAS  C:\Users\DWISET~1\AppData\Local\Temp\ccnysme0.s 			page 52


 223:Generated_Source\PSoC6\pdl\drivers/peripheral/scb/cy_scb_uart.h **** *   is 7. The TX trigger signal is active until DMA loads TX FIFO
 224:Generated_Source\PSoC6\pdl\drivers/peripheral/scb/cy_scb_uart.h **** *   with 8 data elements (note that after the first TX load operation, the data
 225:Generated_Source\PSoC6\pdl\drivers/peripheral/scb/cy_scb_uart.h **** *   element goes to the shift register and TX FIFO is empty).</em>
 226:Generated_Source\PSoC6\pdl\drivers/peripheral/scb/cy_scb_uart.h **** *
 227:Generated_Source\PSoC6\pdl\drivers/peripheral/scb/cy_scb_uart.h **** * To route SCB TX or RX trigger signals to DMA controller use \ref group_trigmux
 228:Generated_Source\PSoC6\pdl\drivers/peripheral/scb/cy_scb_uart.h **** * driver API.
 229:Generated_Source\PSoC6\pdl\drivers/peripheral/scb/cy_scb_uart.h **** *
 230:Generated_Source\PSoC6\pdl\drivers/peripheral/scb/cy_scb_uart.h **** * \note
 231:Generated_Source\PSoC6\pdl\drivers/peripheral/scb/cy_scb_uart.h **** * To properly handle DMA level request signal activation and de-activation from the SCB
 232:Generated_Source\PSoC6\pdl\drivers/peripheral/scb/cy_scb_uart.h **** * peripheral block the DMA Descriptor typically must be configured to re-trigger
 233:Generated_Source\PSoC6\pdl\drivers/peripheral/scb/cy_scb_uart.h **** * after 16 Clk_Slow cycles.
 234:Generated_Source\PSoC6\pdl\drivers/peripheral/scb/cy_scb_uart.h **** *
 235:Generated_Source\PSoC6\pdl\drivers/peripheral/scb/cy_scb_uart.h **** ********************************************************************************
 236:Generated_Source\PSoC6\pdl\drivers/peripheral/scb/cy_scb_uart.h **** * \section group_scb_uart_lp Low Power Support
 237:Generated_Source\PSoC6\pdl\drivers/peripheral/scb/cy_scb_uart.h **** ********************************************************************************
 238:Generated_Source\PSoC6\pdl\drivers/peripheral/scb/cy_scb_uart.h **** * The UART driver provides callback functions to handle power mode
 239:Generated_Source\PSoC6\pdl\drivers/peripheral/scb/cy_scb_uart.h **** * transition. The callback \ref Cy_SCB_UART_DeepSleepCallback must be called
 240:Generated_Source\PSoC6\pdl\drivers/peripheral/scb/cy_scb_uart.h **** * during execution of \ref Cy_SysPm_CpuEnterDeepSleep \ref Cy_SCB_UART_HibernateCallback
 241:Generated_Source\PSoC6\pdl\drivers/peripheral/scb/cy_scb_uart.h **** * must be called during execution of \ref Cy_SysPm_SystemEnterHibernate. To trigger the
 242:Generated_Source\PSoC6\pdl\drivers/peripheral/scb/cy_scb_uart.h **** * callback execution, the callback must be registered before calling the
 243:Generated_Source\PSoC6\pdl\drivers/peripheral/scb/cy_scb_uart.h **** * power mode transition function. Refer to \ref group_syspm driver for more
 244:Generated_Source\PSoC6\pdl\drivers/peripheral/scb/cy_scb_uart.h **** * information about power mode transitions and callback registration.
 245:Generated_Source\PSoC6\pdl\drivers/peripheral/scb/cy_scb_uart.h **** *
 246:Generated_Source\PSoC6\pdl\drivers/peripheral/scb/cy_scb_uart.h **** * The UART is disabled during Deep Sleep and Hibernate and stops driving
 247:Generated_Source\PSoC6\pdl\drivers/peripheral/scb/cy_scb_uart.h **** * the output pins. The state of the UART output pins TX and RTS is High-Z,
 248:Generated_Source\PSoC6\pdl\drivers/peripheral/scb/cy_scb_uart.h **** * which can cause unexpected behavior of the UART receiver due to possible
 249:Generated_Source\PSoC6\pdl\drivers/peripheral/scb/cy_scb_uart.h **** * glitches on these lines. These pins must be set to the inactive state before
 250:Generated_Source\PSoC6\pdl\drivers/peripheral/scb/cy_scb_uart.h **** * entering Deep Sleep or Hibernate mode.
 251:Generated_Source\PSoC6\pdl\drivers/peripheral/scb/cy_scb_uart.h **** * These pins must keep the inactive level (the same state
 252:Generated_Source\PSoC6\pdl\drivers/peripheral/scb/cy_scb_uart.h **** * when UART TX is enabled and does not transfer data) before entering Deep
 253:Generated_Source\PSoC6\pdl\drivers/peripheral/scb/cy_scb_uart.h **** * Sleep or Hibernate mode. To do that, write the GPIO data register of each pin
 254:Generated_Source\PSoC6\pdl\drivers/peripheral/scb/cy_scb_uart.h **** * to the inactive level for each output pin. Then configure High-Speed Input
 255:Generated_Source\PSoC6\pdl\drivers/peripheral/scb/cy_scb_uart.h **** * Output Multiplexer (HSIOM) of each pin to be controlled by the GPIO (use
 256:Generated_Source\PSoC6\pdl\drivers/peripheral/scb/cy_scb_uart.h **** * \ref group_gpio driver API). After exiting Deep Sleep mode the UART
 257:Generated_Source\PSoC6\pdl\drivers/peripheral/scb/cy_scb_uart.h **** * must be enabled and the pins configuration restored to return the
 258:Generated_Source\PSoC6\pdl\drivers/peripheral/scb/cy_scb_uart.h **** * UART control of the pins (after exiting Hibernate mode, the
 259:Generated_Source\PSoC6\pdl\drivers/peripheral/scb/cy_scb_uart.h **** * system initialization code does the same). Copy either or
 260:Generated_Source\PSoC6\pdl\drivers/peripheral/scb/cy_scb_uart.h **** * both \ref Cy_SCB_UART_DeepSleepCallback and \ref Cy_SCB_UART_HibernateCallback
 261:Generated_Source\PSoC6\pdl\drivers/peripheral/scb/cy_scb_uart.h **** * as appropriate, and make the changes described above inside the function.
 262:Generated_Source\PSoC6\pdl\drivers/peripheral/scb/cy_scb_uart.h **** * Alternately, external pull-up or pull-down resistors can be connected
 263:Generated_Source\PSoC6\pdl\drivers/peripheral/scb/cy_scb_uart.h **** * to the appropriate UART lines to keep them inactive during Deep-Sleep or
 264:Generated_Source\PSoC6\pdl\drivers/peripheral/scb/cy_scb_uart.h **** * Hibernate.
 265:Generated_Source\PSoC6\pdl\drivers/peripheral/scb/cy_scb_uart.h **** *
 266:Generated_Source\PSoC6\pdl\drivers/peripheral/scb/cy_scb_uart.h **** ********************************************************************************
 267:Generated_Source\PSoC6\pdl\drivers/peripheral/scb/cy_scb_uart.h **** * \section group_scb_uart_more_information More Information
 268:Generated_Source\PSoC6\pdl\drivers/peripheral/scb/cy_scb_uart.h **** ********************************************************************************
 269:Generated_Source\PSoC6\pdl\drivers/peripheral/scb/cy_scb_uart.h **** * For more information on the SCB peripheral, refer to the technical reference
 270:Generated_Source\PSoC6\pdl\drivers/peripheral/scb/cy_scb_uart.h **** * manual (TRM).
 271:Generated_Source\PSoC6\pdl\drivers/peripheral/scb/cy_scb_uart.h **** *
 272:Generated_Source\PSoC6\pdl\drivers/peripheral/scb/cy_scb_uart.h **** ********************************************************************************
 273:Generated_Source\PSoC6\pdl\drivers/peripheral/scb/cy_scb_uart.h **** * \section group_scb_uart_MISRA MISRA-C Compliance
 274:Generated_Source\PSoC6\pdl\drivers/peripheral/scb/cy_scb_uart.h **** ********************************************************************************
 275:Generated_Source\PSoC6\pdl\drivers/peripheral/scb/cy_scb_uart.h **** * <table class="doxtable">
 276:Generated_Source\PSoC6\pdl\drivers/peripheral/scb/cy_scb_uart.h **** *   <tr>
 277:Generated_Source\PSoC6\pdl\drivers/peripheral/scb/cy_scb_uart.h **** *     <th>MISRA Rule</th>
 278:Generated_Source\PSoC6\pdl\drivers/peripheral/scb/cy_scb_uart.h **** *     <th>Rule Class (Required/Advisory)</th>
 279:Generated_Source\PSoC6\pdl\drivers/peripheral/scb/cy_scb_uart.h **** *     <th>Rule Description</th>
ARM GAS  C:\Users\DWISET~1\AppData\Local\Temp\ccnysme0.s 			page 53


 280:Generated_Source\PSoC6\pdl\drivers/peripheral/scb/cy_scb_uart.h **** *     <th>Description of Deviation(s)</th>
 281:Generated_Source\PSoC6\pdl\drivers/peripheral/scb/cy_scb_uart.h **** *   </tr>
 282:Generated_Source\PSoC6\pdl\drivers/peripheral/scb/cy_scb_uart.h **** *   <tr>
 283:Generated_Source\PSoC6\pdl\drivers/peripheral/scb/cy_scb_uart.h **** *     <td>11.4</td>
 284:Generated_Source\PSoC6\pdl\drivers/peripheral/scb/cy_scb_uart.h **** *     <td>A</td>
 285:Generated_Source\PSoC6\pdl\drivers/peripheral/scb/cy_scb_uart.h **** *     <td>A cast should not be performed between a pointer to object type and
 286:Generated_Source\PSoC6\pdl\drivers/peripheral/scb/cy_scb_uart.h **** *         a different pointer to object type.</td>
 287:Generated_Source\PSoC6\pdl\drivers/peripheral/scb/cy_scb_uart.h **** *     <td>
 288:Generated_Source\PSoC6\pdl\drivers/peripheral/scb/cy_scb_uart.h **** *         * The pointer to the buffer memory is void to allow handling different
 289:Generated_Source\PSoC6\pdl\drivers/peripheral/scb/cy_scb_uart.h **** *         different data types: uint8_t (4-8 bits) or uint16_t (9-16 bits).
 290:Generated_Source\PSoC6\pdl\drivers/peripheral/scb/cy_scb_uart.h **** *         The cast operation is safe because the configuration is verified
 291:Generated_Source\PSoC6\pdl\drivers/peripheral/scb/cy_scb_uart.h **** *         before operation is performed.
 292:Generated_Source\PSoC6\pdl\drivers/peripheral/scb/cy_scb_uart.h **** *         * The functions \ref Cy_SCB_UART_DeepSleepCallback and
 293:Generated_Source\PSoC6\pdl\drivers/peripheral/scb/cy_scb_uart.h **** *         \ref Cy_SCB_UART_HibernateCallback are callback of
 294:Generated_Source\PSoC6\pdl\drivers/peripheral/scb/cy_scb_uart.h **** *         \ref cy_en_syspm_status_t type. The cast operation safety in these
 295:Generated_Source\PSoC6\pdl\drivers/peripheral/scb/cy_scb_uart.h **** *         functions becomes the user's responsibility because pointers are
 296:Generated_Source\PSoC6\pdl\drivers/peripheral/scb/cy_scb_uart.h **** *         initialized when callback is registered in SysPm driver.</td>
 297:Generated_Source\PSoC6\pdl\drivers/peripheral/scb/cy_scb_uart.h **** *   </tr>
 298:Generated_Source\PSoC6\pdl\drivers/peripheral/scb/cy_scb_uart.h **** *   <tr>
 299:Generated_Source\PSoC6\pdl\drivers/peripheral/scb/cy_scb_uart.h **** *     <td>14.2</td>
 300:Generated_Source\PSoC6\pdl\drivers/peripheral/scb/cy_scb_uart.h **** *     <td>R</td>
 301:Generated_Source\PSoC6\pdl\drivers/peripheral/scb/cy_scb_uart.h **** *     <td>All non-null statements shall either: a) have at least one side-effect
 302:Generated_Source\PSoC6\pdl\drivers/peripheral/scb/cy_scb_uart.h **** *         however executed, or b) cause control flow to change.</td>
 303:Generated_Source\PSoC6\pdl\drivers/peripheral/scb/cy_scb_uart.h **** *     <td>The unused function parameters are cast to void. This statement
 304:Generated_Source\PSoC6\pdl\drivers/peripheral/scb/cy_scb_uart.h **** *         has no side-effect and is used to suppress a compiler warning.</td>
 305:Generated_Source\PSoC6\pdl\drivers/peripheral/scb/cy_scb_uart.h **** *   </tr>
 306:Generated_Source\PSoC6\pdl\drivers/peripheral/scb/cy_scb_uart.h **** *   <tr>
 307:Generated_Source\PSoC6\pdl\drivers/peripheral/scb/cy_scb_uart.h **** *     <td>14.7</td>
 308:Generated_Source\PSoC6\pdl\drivers/peripheral/scb/cy_scb_uart.h **** *     <td>R</td>
 309:Generated_Source\PSoC6\pdl\drivers/peripheral/scb/cy_scb_uart.h **** *     <td>A function shall have a single point of exit at the end of the
 310:Generated_Source\PSoC6\pdl\drivers/peripheral/scb/cy_scb_uart.h **** *         function.</td>
 311:Generated_Source\PSoC6\pdl\drivers/peripheral/scb/cy_scb_uart.h **** *     <td>The functions can return from several points. This is done to improve
 312:Generated_Source\PSoC6\pdl\drivers/peripheral/scb/cy_scb_uart.h **** *         code clarity when returning error status code if input parameters
 313:Generated_Source\PSoC6\pdl\drivers/peripheral/scb/cy_scb_uart.h **** *         validation fails.</td>
 314:Generated_Source\PSoC6\pdl\drivers/peripheral/scb/cy_scb_uart.h **** *   </tr>
 315:Generated_Source\PSoC6\pdl\drivers/peripheral/scb/cy_scb_uart.h **** * </table>
 316:Generated_Source\PSoC6\pdl\drivers/peripheral/scb/cy_scb_uart.h **** *
 317:Generated_Source\PSoC6\pdl\drivers/peripheral/scb/cy_scb_uart.h **** * \section group_scb_uart_changelog Changelog
 318:Generated_Source\PSoC6\pdl\drivers/peripheral/scb/cy_scb_uart.h **** * <table class="doxtable">
 319:Generated_Source\PSoC6\pdl\drivers/peripheral/scb/cy_scb_uart.h **** *   <tr><th>Version</th><th>Changes</th><th>Reason for Change</th></tr>
 320:Generated_Source\PSoC6\pdl\drivers/peripheral/scb/cy_scb_uart.h **** *   <tr>
 321:Generated_Source\PSoC6\pdl\drivers/peripheral/scb/cy_scb_uart.h **** *     <td rowspan="2">2.20</td>
 322:Generated_Source\PSoC6\pdl\drivers/peripheral/scb/cy_scb_uart.h **** *     <td>Flattened the organization of the driver source code into the single
 323:Generated_Source\PSoC6\pdl\drivers/peripheral/scb/cy_scb_uart.h **** *         source directory and the single include directory.
 324:Generated_Source\PSoC6\pdl\drivers/peripheral/scb/cy_scb_uart.h **** *     </td>
 325:Generated_Source\PSoC6\pdl\drivers/peripheral/scb/cy_scb_uart.h **** *     <td>Driver library directory-structure simplification.</td>
 326:Generated_Source\PSoC6\pdl\drivers/peripheral/scb/cy_scb_uart.h **** *   </tr>
 327:Generated_Source\PSoC6\pdl\drivers/peripheral/scb/cy_scb_uart.h **** *   <tr>
 328:Generated_Source\PSoC6\pdl\drivers/peripheral/scb/cy_scb_uart.h **** *     <td>Added register access layer. Use register access macros instead
 329:Generated_Source\PSoC6\pdl\drivers/peripheral/scb/cy_scb_uart.h **** *         of direct register access using dereferenced pointers.</td>
 330:Generated_Source\PSoC6\pdl\drivers/peripheral/scb/cy_scb_uart.h **** *     <td>Makes register access device-independent, so that the PDL does
 331:Generated_Source\PSoC6\pdl\drivers/peripheral/scb/cy_scb_uart.h **** *         not need to be recompiled for each supported part number.</td>
 332:Generated_Source\PSoC6\pdl\drivers/peripheral/scb/cy_scb_uart.h **** *   </tr>
 333:Generated_Source\PSoC6\pdl\drivers/peripheral/scb/cy_scb_uart.h **** *   <tr>
 334:Generated_Source\PSoC6\pdl\drivers/peripheral/scb/cy_scb_uart.h **** *     <td>2.10</td>
 335:Generated_Source\PSoC6\pdl\drivers/peripheral/scb/cy_scb_uart.h **** *     <td>None.</td>
 336:Generated_Source\PSoC6\pdl\drivers/peripheral/scb/cy_scb_uart.h **** *     <td>SCB I2C driver updated.</td>
ARM GAS  C:\Users\DWISET~1\AppData\Local\Temp\ccnysme0.s 			page 54


 337:Generated_Source\PSoC6\pdl\drivers/peripheral/scb/cy_scb_uart.h **** *   </tr>
 338:Generated_Source\PSoC6\pdl\drivers/peripheral/scb/cy_scb_uart.h **** *   <tr>
 339:Generated_Source\PSoC6\pdl\drivers/peripheral/scb/cy_scb_uart.h **** *     <td rowspan="5">2.0</td>
 340:Generated_Source\PSoC6\pdl\drivers/peripheral/scb/cy_scb_uart.h **** *     <td>Added parameters validation for public API.</td>
 341:Generated_Source\PSoC6\pdl\drivers/peripheral/scb/cy_scb_uart.h **** *     <td></td>
 342:Generated_Source\PSoC6\pdl\drivers/peripheral/scb/cy_scb_uart.h **** *   </tr>
 343:Generated_Source\PSoC6\pdl\drivers/peripheral/scb/cy_scb_uart.h **** *   <tr>
 344:Generated_Source\PSoC6\pdl\drivers/peripheral/scb/cy_scb_uart.h **** *     <td>Replaced variables that have limited range of values with enumerated
 345:Generated_Source\PSoC6\pdl\drivers/peripheral/scb/cy_scb_uart.h **** *         types.</td>
 346:Generated_Source\PSoC6\pdl\drivers/peripheral/scb/cy_scb_uart.h **** *     <td></td>
 347:Generated_Source\PSoC6\pdl\drivers/peripheral/scb/cy_scb_uart.h **** *   </tr>
 348:Generated_Source\PSoC6\pdl\drivers/peripheral/scb/cy_scb_uart.h **** *   <tr>
 349:Generated_Source\PSoC6\pdl\drivers/peripheral/scb/cy_scb_uart.h **** *     <td>Added missing "cy_cb_" to the callback function type names.</td>
 350:Generated_Source\PSoC6\pdl\drivers/peripheral/scb/cy_scb_uart.h **** *     <td></td>
 351:Generated_Source\PSoC6\pdl\drivers/peripheral/scb/cy_scb_uart.h **** *   </tr>
 352:Generated_Source\PSoC6\pdl\drivers/peripheral/scb/cy_scb_uart.h **** *   <tr>
 353:Generated_Source\PSoC6\pdl\drivers/peripheral/scb/cy_scb_uart.h **** *     <td>Added function \ref Cy_SCB_UART_SendBreakBlocking for break condition
 354:Generated_Source\PSoC6\pdl\drivers/peripheral/scb/cy_scb_uart.h **** *         generation.</td>
 355:Generated_Source\PSoC6\pdl\drivers/peripheral/scb/cy_scb_uart.h **** *     <td></td>
 356:Generated_Source\PSoC6\pdl\drivers/peripheral/scb/cy_scb_uart.h **** *   </tr>
 357:Generated_Source\PSoC6\pdl\drivers/peripheral/scb/cy_scb_uart.h **** *   <tr>
 358:Generated_Source\PSoC6\pdl\drivers/peripheral/scb/cy_scb_uart.h **** *     <td>Fixed low power callbacks \ref Cy_SCB_UART_DeepSleepCallback and
 359:Generated_Source\PSoC6\pdl\drivers/peripheral/scb/cy_scb_uart.h **** *         \ref Cy_SCB_UART_HibernateCallback to prevent the device from entering
 360:Generated_Source\PSoC6\pdl\drivers/peripheral/scb/cy_scb_uart.h **** *         low power mode when RX FIFO is not empty.</td>
 361:Generated_Source\PSoC6\pdl\drivers/peripheral/scb/cy_scb_uart.h **** *     <td>The callbacks allowed entering device into low power mode when RX FIFO
 362:Generated_Source\PSoC6\pdl\drivers/peripheral/scb/cy_scb_uart.h **** *         had data.</td>
 363:Generated_Source\PSoC6\pdl\drivers/peripheral/scb/cy_scb_uart.h **** *   </tr>
 364:Generated_Source\PSoC6\pdl\drivers/peripheral/scb/cy_scb_uart.h **** *   <tr>
 365:Generated_Source\PSoC6\pdl\drivers/peripheral/scb/cy_scb_uart.h **** *     <td>1.0</td>
 366:Generated_Source\PSoC6\pdl\drivers/peripheral/scb/cy_scb_uart.h **** *     <td>Initial version.</td>
 367:Generated_Source\PSoC6\pdl\drivers/peripheral/scb/cy_scb_uart.h **** *     <td></td>
 368:Generated_Source\PSoC6\pdl\drivers/peripheral/scb/cy_scb_uart.h **** *   </tr>
 369:Generated_Source\PSoC6\pdl\drivers/peripheral/scb/cy_scb_uart.h **** * </table>
 370:Generated_Source\PSoC6\pdl\drivers/peripheral/scb/cy_scb_uart.h **** *
 371:Generated_Source\PSoC6\pdl\drivers/peripheral/scb/cy_scb_uart.h **** * \defgroup group_scb_uart_macros Macros
 372:Generated_Source\PSoC6\pdl\drivers/peripheral/scb/cy_scb_uart.h **** * \defgroup group_scb_uart_functions Functions
 373:Generated_Source\PSoC6\pdl\drivers/peripheral/scb/cy_scb_uart.h **** * \{
 374:Generated_Source\PSoC6\pdl\drivers/peripheral/scb/cy_scb_uart.h **** * \defgroup group_scb_uart_general_functions General
 375:Generated_Source\PSoC6\pdl\drivers/peripheral/scb/cy_scb_uart.h **** * \defgroup group_scb_uart_high_level_functions High-Level
 376:Generated_Source\PSoC6\pdl\drivers/peripheral/scb/cy_scb_uart.h **** * \defgroup group_scb_uart_low_level_functions Low-Level
 377:Generated_Source\PSoC6\pdl\drivers/peripheral/scb/cy_scb_uart.h **** * \defgroup group_scb_uart_interrupt_functions Interrupt
 378:Generated_Source\PSoC6\pdl\drivers/peripheral/scb/cy_scb_uart.h **** * \defgroup group_scb_uart_low_power_functions Low Power Callbacks
 379:Generated_Source\PSoC6\pdl\drivers/peripheral/scb/cy_scb_uart.h **** * \}
 380:Generated_Source\PSoC6\pdl\drivers/peripheral/scb/cy_scb_uart.h **** * \defgroup group_scb_uart_data_structures Data Structures
 381:Generated_Source\PSoC6\pdl\drivers/peripheral/scb/cy_scb_uart.h **** * \defgroup group_scb_uart_enums Enumerated Types
 382:Generated_Source\PSoC6\pdl\drivers/peripheral/scb/cy_scb_uart.h **** */
 383:Generated_Source\PSoC6\pdl\drivers/peripheral/scb/cy_scb_uart.h **** 
 384:Generated_Source\PSoC6\pdl\drivers/peripheral/scb/cy_scb_uart.h **** #if !defined(CY_SCB_UART_H)
 385:Generated_Source\PSoC6\pdl\drivers/peripheral/scb/cy_scb_uart.h **** #define CY_SCB_UART_H
 386:Generated_Source\PSoC6\pdl\drivers/peripheral/scb/cy_scb_uart.h **** 
 387:Generated_Source\PSoC6\pdl\drivers/peripheral/scb/cy_scb_uart.h **** #include "cy_scb_common.h"
 388:Generated_Source\PSoC6\pdl\drivers/peripheral/scb/cy_scb_uart.h **** 
 389:Generated_Source\PSoC6\pdl\drivers/peripheral/scb/cy_scb_uart.h **** #if defined(__cplusplus)
 390:Generated_Source\PSoC6\pdl\drivers/peripheral/scb/cy_scb_uart.h **** extern "C" {
 391:Generated_Source\PSoC6\pdl\drivers/peripheral/scb/cy_scb_uart.h **** #endif
 392:Generated_Source\PSoC6\pdl\drivers/peripheral/scb/cy_scb_uart.h **** 
 393:Generated_Source\PSoC6\pdl\drivers/peripheral/scb/cy_scb_uart.h **** /***************************************
ARM GAS  C:\Users\DWISET~1\AppData\Local\Temp\ccnysme0.s 			page 55


 394:Generated_Source\PSoC6\pdl\drivers/peripheral/scb/cy_scb_uart.h **** *          Enumerated Types
 395:Generated_Source\PSoC6\pdl\drivers/peripheral/scb/cy_scb_uart.h **** ***************************************/
 396:Generated_Source\PSoC6\pdl\drivers/peripheral/scb/cy_scb_uart.h **** 
 397:Generated_Source\PSoC6\pdl\drivers/peripheral/scb/cy_scb_uart.h **** /**
 398:Generated_Source\PSoC6\pdl\drivers/peripheral/scb/cy_scb_uart.h **** * \addtogroup group_scb_uart_enums
 399:Generated_Source\PSoC6\pdl\drivers/peripheral/scb/cy_scb_uart.h **** * \{
 400:Generated_Source\PSoC6\pdl\drivers/peripheral/scb/cy_scb_uart.h **** */
 401:Generated_Source\PSoC6\pdl\drivers/peripheral/scb/cy_scb_uart.h **** 
 402:Generated_Source\PSoC6\pdl\drivers/peripheral/scb/cy_scb_uart.h **** /** UART status codes */
 403:Generated_Source\PSoC6\pdl\drivers/peripheral/scb/cy_scb_uart.h **** typedef enum
 404:Generated_Source\PSoC6\pdl\drivers/peripheral/scb/cy_scb_uart.h **** {
 405:Generated_Source\PSoC6\pdl\drivers/peripheral/scb/cy_scb_uart.h ****     /** Operation completed successfully */
 406:Generated_Source\PSoC6\pdl\drivers/peripheral/scb/cy_scb_uart.h ****     CY_SCB_UART_SUCCESS = 0U,
 407:Generated_Source\PSoC6\pdl\drivers/peripheral/scb/cy_scb_uart.h **** 
 408:Generated_Source\PSoC6\pdl\drivers/peripheral/scb/cy_scb_uart.h ****     /** One or more of input parameters are invalid */
 409:Generated_Source\PSoC6\pdl\drivers/peripheral/scb/cy_scb_uart.h ****     CY_SCB_UART_BAD_PARAM = (CY_SCB_ID | CY_PDL_STATUS_ERROR | CY_SCB_UART_ID | 1U),
 410:Generated_Source\PSoC6\pdl\drivers/peripheral/scb/cy_scb_uart.h **** 
 411:Generated_Source\PSoC6\pdl\drivers/peripheral/scb/cy_scb_uart.h ****     /**
 412:Generated_Source\PSoC6\pdl\drivers/peripheral/scb/cy_scb_uart.h ****     * The UART is busy processing a receive operation.
 413:Generated_Source\PSoC6\pdl\drivers/peripheral/scb/cy_scb_uart.h ****     */
 414:Generated_Source\PSoC6\pdl\drivers/peripheral/scb/cy_scb_uart.h ****     CY_SCB_UART_RECEIVE_BUSY = (CY_SCB_ID | CY_PDL_STATUS_ERROR | CY_SCB_UART_ID | 2U),
 415:Generated_Source\PSoC6\pdl\drivers/peripheral/scb/cy_scb_uart.h **** 
 416:Generated_Source\PSoC6\pdl\drivers/peripheral/scb/cy_scb_uart.h ****     /**
 417:Generated_Source\PSoC6\pdl\drivers/peripheral/scb/cy_scb_uart.h ****     * The UART is busy processing a transmit operation.
 418:Generated_Source\PSoC6\pdl\drivers/peripheral/scb/cy_scb_uart.h ****     */
 419:Generated_Source\PSoC6\pdl\drivers/peripheral/scb/cy_scb_uart.h ****     CY_SCB_UART_TRANSMIT_BUSY = (CY_SCB_ID | CY_PDL_STATUS_ERROR | CY_SCB_UART_ID | 3U)
 420:Generated_Source\PSoC6\pdl\drivers/peripheral/scb/cy_scb_uart.h **** } cy_en_scb_uart_status_t;
 421:Generated_Source\PSoC6\pdl\drivers/peripheral/scb/cy_scb_uart.h **** 
 422:Generated_Source\PSoC6\pdl\drivers/peripheral/scb/cy_scb_uart.h **** /** UART Mode */
 423:Generated_Source\PSoC6\pdl\drivers/peripheral/scb/cy_scb_uart.h **** typedef enum
 424:Generated_Source\PSoC6\pdl\drivers/peripheral/scb/cy_scb_uart.h **** {
 425:Generated_Source\PSoC6\pdl\drivers/peripheral/scb/cy_scb_uart.h ****     CY_SCB_UART_STANDARD  = 0U, /**< Configures the SCB for Standard UART operation */
 426:Generated_Source\PSoC6\pdl\drivers/peripheral/scb/cy_scb_uart.h ****     CY_SCB_UART_SMARTCARD = 1U, /**< Configures the SCB for SmartCard operation */
 427:Generated_Source\PSoC6\pdl\drivers/peripheral/scb/cy_scb_uart.h ****     CY_SCB_UART_IRDA      = 2U, /**< Configures the SCB for IrDA operation */
 428:Generated_Source\PSoC6\pdl\drivers/peripheral/scb/cy_scb_uart.h **** } cy_en_scb_uart_mode_t;
 429:Generated_Source\PSoC6\pdl\drivers/peripheral/scb/cy_scb_uart.h **** 
 430:Generated_Source\PSoC6\pdl\drivers/peripheral/scb/cy_scb_uart.h **** /** UART Stop Bits */
 431:Generated_Source\PSoC6\pdl\drivers/peripheral/scb/cy_scb_uart.h **** typedef enum
 432:Generated_Source\PSoC6\pdl\drivers/peripheral/scb/cy_scb_uart.h **** {
 433:Generated_Source\PSoC6\pdl\drivers/peripheral/scb/cy_scb_uart.h ****     CY_SCB_UART_STOP_BITS_1   = 2U,  /**< UART looks for 1 Stop Bit    */
 434:Generated_Source\PSoC6\pdl\drivers/peripheral/scb/cy_scb_uart.h ****     CY_SCB_UART_STOP_BITS_1_5 = 3U,  /**< UART looks for 1.5 Stop Bits */
 435:Generated_Source\PSoC6\pdl\drivers/peripheral/scb/cy_scb_uart.h ****     CY_SCB_UART_STOP_BITS_2   = 4U,  /**< UART looks for 2 Stop Bits   */
 436:Generated_Source\PSoC6\pdl\drivers/peripheral/scb/cy_scb_uart.h ****     CY_SCB_UART_STOP_BITS_2_5 = 5U,  /**< UART looks for 2.5 Stop Bits */
 437:Generated_Source\PSoC6\pdl\drivers/peripheral/scb/cy_scb_uart.h ****     CY_SCB_UART_STOP_BITS_3   = 6U,  /**< UART looks for 3 Stop Bits   */
 438:Generated_Source\PSoC6\pdl\drivers/peripheral/scb/cy_scb_uart.h ****     CY_SCB_UART_STOP_BITS_3_5 = 7U,  /**< UART looks for 3.5 Stop Bits */
 439:Generated_Source\PSoC6\pdl\drivers/peripheral/scb/cy_scb_uart.h ****     CY_SCB_UART_STOP_BITS_4   = 8U,  /**< UART looks for 4 Stop Bits   */
 440:Generated_Source\PSoC6\pdl\drivers/peripheral/scb/cy_scb_uart.h **** } cy_en_scb_uart_stop_bits_t;
 441:Generated_Source\PSoC6\pdl\drivers/peripheral/scb/cy_scb_uart.h **** 
 442:Generated_Source\PSoC6\pdl\drivers/peripheral/scb/cy_scb_uart.h **** /** UART Parity */
 443:Generated_Source\PSoC6\pdl\drivers/peripheral/scb/cy_scb_uart.h **** typedef enum
 444:Generated_Source\PSoC6\pdl\drivers/peripheral/scb/cy_scb_uart.h **** {
 445:Generated_Source\PSoC6\pdl\drivers/peripheral/scb/cy_scb_uart.h ****     CY_SCB_UART_PARITY_NONE = 0U,    /**< UART has no parity check   */
 446:Generated_Source\PSoC6\pdl\drivers/peripheral/scb/cy_scb_uart.h ****     CY_SCB_UART_PARITY_EVEN = 2U,    /**< UART has even parity check */
 447:Generated_Source\PSoC6\pdl\drivers/peripheral/scb/cy_scb_uart.h ****     CY_SCB_UART_PARITY_ODD  = 3U,    /**< UART has odd parity check  */
 448:Generated_Source\PSoC6\pdl\drivers/peripheral/scb/cy_scb_uart.h **** } cy_en_scb_uart_parity_t;
 449:Generated_Source\PSoC6\pdl\drivers/peripheral/scb/cy_scb_uart.h **** 
 450:Generated_Source\PSoC6\pdl\drivers/peripheral/scb/cy_scb_uart.h **** /** UART Polarity */
ARM GAS  C:\Users\DWISET~1\AppData\Local\Temp\ccnysme0.s 			page 56


 451:Generated_Source\PSoC6\pdl\drivers/peripheral/scb/cy_scb_uart.h **** typedef enum
 452:Generated_Source\PSoC6\pdl\drivers/peripheral/scb/cy_scb_uart.h **** {
 453:Generated_Source\PSoC6\pdl\drivers/peripheral/scb/cy_scb_uart.h ****     CY_SCB_UART_ACTIVE_LOW  = 0U,   /**< Signal is active low */
 454:Generated_Source\PSoC6\pdl\drivers/peripheral/scb/cy_scb_uart.h ****     CY_SCB_UART_ACTIVE_HIGH = 1U,   /**< Signal is active high */
 455:Generated_Source\PSoC6\pdl\drivers/peripheral/scb/cy_scb_uart.h **** } cy_en_scb_uart_polarity_t;
 456:Generated_Source\PSoC6\pdl\drivers/peripheral/scb/cy_scb_uart.h **** /** \} group_scb_uart_enums */
 457:Generated_Source\PSoC6\pdl\drivers/peripheral/scb/cy_scb_uart.h **** 
 458:Generated_Source\PSoC6\pdl\drivers/peripheral/scb/cy_scb_uart.h **** 
 459:Generated_Source\PSoC6\pdl\drivers/peripheral/scb/cy_scb_uart.h **** /*******************************************************************************
 460:Generated_Source\PSoC6\pdl\drivers/peripheral/scb/cy_scb_uart.h **** *                           Type Definitions
 461:Generated_Source\PSoC6\pdl\drivers/peripheral/scb/cy_scb_uart.h **** *******************************************************************************/
 462:Generated_Source\PSoC6\pdl\drivers/peripheral/scb/cy_scb_uart.h **** 
 463:Generated_Source\PSoC6\pdl\drivers/peripheral/scb/cy_scb_uart.h **** /**
 464:Generated_Source\PSoC6\pdl\drivers/peripheral/scb/cy_scb_uart.h **** * \addtogroup group_scb_uart_data_structures
 465:Generated_Source\PSoC6\pdl\drivers/peripheral/scb/cy_scb_uart.h **** * \{
 466:Generated_Source\PSoC6\pdl\drivers/peripheral/scb/cy_scb_uart.h **** */
 467:Generated_Source\PSoC6\pdl\drivers/peripheral/scb/cy_scb_uart.h **** 
 468:Generated_Source\PSoC6\pdl\drivers/peripheral/scb/cy_scb_uart.h **** /**
 469:Generated_Source\PSoC6\pdl\drivers/peripheral/scb/cy_scb_uart.h **** * Provides the typedef for the callback function called in the
 470:Generated_Source\PSoC6\pdl\drivers/peripheral/scb/cy_scb_uart.h **** * \ref Cy_SCB_UART_Interrupt to notify the user about occurrences of
 471:Generated_Source\PSoC6\pdl\drivers/peripheral/scb/cy_scb_uart.h **** * \ref group_scb_uart_macros_callback_events.
 472:Generated_Source\PSoC6\pdl\drivers/peripheral/scb/cy_scb_uart.h **** */
 473:Generated_Source\PSoC6\pdl\drivers/peripheral/scb/cy_scb_uart.h **** typedef void (* cy_cb_scb_uart_handle_events_t)(uint32_t event);
 474:Generated_Source\PSoC6\pdl\drivers/peripheral/scb/cy_scb_uart.h **** 
 475:Generated_Source\PSoC6\pdl\drivers/peripheral/scb/cy_scb_uart.h **** /** UART configuration structure */
 476:Generated_Source\PSoC6\pdl\drivers/peripheral/scb/cy_scb_uart.h **** typedef struct stc_scb_uart_config
 477:Generated_Source\PSoC6\pdl\drivers/peripheral/scb/cy_scb_uart.h **** {
 478:Generated_Source\PSoC6\pdl\drivers/peripheral/scb/cy_scb_uart.h ****     /** Specifies the UART's mode of operation */
 479:Generated_Source\PSoC6\pdl\drivers/peripheral/scb/cy_scb_uart.h ****     cy_en_scb_uart_mode_t    uartMode;
 480:Generated_Source\PSoC6\pdl\drivers/peripheral/scb/cy_scb_uart.h **** 
 481:Generated_Source\PSoC6\pdl\drivers/peripheral/scb/cy_scb_uart.h ****     /**
 482:Generated_Source\PSoC6\pdl\drivers/peripheral/scb/cy_scb_uart.h ****     * Oversample factor for UART.
 483:Generated_Source\PSoC6\pdl\drivers/peripheral/scb/cy_scb_uart.h ****     * * The UART baud rate is the SCB Clock frequency / oversample
 484:Generated_Source\PSoC6\pdl\drivers/peripheral/scb/cy_scb_uart.h ****     *  (valid range is 8-16).
 485:Generated_Source\PSoC6\pdl\drivers/peripheral/scb/cy_scb_uart.h ****     * * For IrDA, the oversample is always 16, unless
 486:Generated_Source\PSoC6\pdl\drivers/peripheral/scb/cy_scb_uart.h ****     * \ref irdaEnableLowPowerReceiver is enabled. Then the oversample is
 487:Generated_Source\PSoC6\pdl\drivers/peripheral/scb/cy_scb_uart.h ****     * reduced to the \ref group_scb_uart_macros_irda_lp_ovs set.
 488:Generated_Source\PSoC6\pdl\drivers/peripheral/scb/cy_scb_uart.h ****     */
 489:Generated_Source\PSoC6\pdl\drivers/peripheral/scb/cy_scb_uart.h ****     uint32_t    oversample;
 490:Generated_Source\PSoC6\pdl\drivers/peripheral/scb/cy_scb_uart.h **** 
 491:Generated_Source\PSoC6\pdl\drivers/peripheral/scb/cy_scb_uart.h ****     /** The width of UART data (valid range is 5 to 9) */
 492:Generated_Source\PSoC6\pdl\drivers/peripheral/scb/cy_scb_uart.h ****     uint32_t    dataWidth;
 493:Generated_Source\PSoC6\pdl\drivers/peripheral/scb/cy_scb_uart.h **** 
 494:Generated_Source\PSoC6\pdl\drivers/peripheral/scb/cy_scb_uart.h ****     /**
 495:Generated_Source\PSoC6\pdl\drivers/peripheral/scb/cy_scb_uart.h ****     * Enables the hardware to shift out data element MSB first; otherwise,
 496:Generated_Source\PSoC6\pdl\drivers/peripheral/scb/cy_scb_uart.h ****     * LSB first
 497:Generated_Source\PSoC6\pdl\drivers/peripheral/scb/cy_scb_uart.h ****     */
 498:Generated_Source\PSoC6\pdl\drivers/peripheral/scb/cy_scb_uart.h ****     bool        enableMsbFirst;
 499:Generated_Source\PSoC6\pdl\drivers/peripheral/scb/cy_scb_uart.h **** 
 500:Generated_Source\PSoC6\pdl\drivers/peripheral/scb/cy_scb_uart.h ****     /**
 501:Generated_Source\PSoC6\pdl\drivers/peripheral/scb/cy_scb_uart.h ****     * Specifies the number of stop bits in the UART transaction, in half-bit
 502:Generated_Source\PSoC6\pdl\drivers/peripheral/scb/cy_scb_uart.h ****     * increments
 503:Generated_Source\PSoC6\pdl\drivers/peripheral/scb/cy_scb_uart.h ****     */
 504:Generated_Source\PSoC6\pdl\drivers/peripheral/scb/cy_scb_uart.h ****     cy_en_scb_uart_stop_bits_t    stopBits;
 505:Generated_Source\PSoC6\pdl\drivers/peripheral/scb/cy_scb_uart.h **** 
 506:Generated_Source\PSoC6\pdl\drivers/peripheral/scb/cy_scb_uart.h ****     /** Configures the UART parity */
 507:Generated_Source\PSoC6\pdl\drivers/peripheral/scb/cy_scb_uart.h ****     cy_en_scb_uart_parity_t    parity;
ARM GAS  C:\Users\DWISET~1\AppData\Local\Temp\ccnysme0.s 			page 57


 508:Generated_Source\PSoC6\pdl\drivers/peripheral/scb/cy_scb_uart.h **** 
 509:Generated_Source\PSoC6\pdl\drivers/peripheral/scb/cy_scb_uart.h ****     /**
 510:Generated_Source\PSoC6\pdl\drivers/peripheral/scb/cy_scb_uart.h ****     * Enables a digital 3-tap median filter (2 out of 3 voting) to be applied
 511:Generated_Source\PSoC6\pdl\drivers/peripheral/scb/cy_scb_uart.h ****     * to the input of the RX FIFO to filter glitches on the line (for IrDA,
 512:Generated_Source\PSoC6\pdl\drivers/peripheral/scb/cy_scb_uart.h ****     * this parameter is ignored)
 513:Generated_Source\PSoC6\pdl\drivers/peripheral/scb/cy_scb_uart.h ****     *
 514:Generated_Source\PSoC6\pdl\drivers/peripheral/scb/cy_scb_uart.h ****     */
 515:Generated_Source\PSoC6\pdl\drivers/peripheral/scb/cy_scb_uart.h ****     bool        enableInputFilter;
 516:Generated_Source\PSoC6\pdl\drivers/peripheral/scb/cy_scb_uart.h **** 
 517:Generated_Source\PSoC6\pdl\drivers/peripheral/scb/cy_scb_uart.h ****     /**
 518:Generated_Source\PSoC6\pdl\drivers/peripheral/scb/cy_scb_uart.h ****     * Enables the hardware to drop data in the RX FIFO when a parity error is
 519:Generated_Source\PSoC6\pdl\drivers/peripheral/scb/cy_scb_uart.h ****     * detected
 520:Generated_Source\PSoC6\pdl\drivers/peripheral/scb/cy_scb_uart.h ****     */
 521:Generated_Source\PSoC6\pdl\drivers/peripheral/scb/cy_scb_uart.h ****     bool        dropOnParityError;
 522:Generated_Source\PSoC6\pdl\drivers/peripheral/scb/cy_scb_uart.h **** 
 523:Generated_Source\PSoC6\pdl\drivers/peripheral/scb/cy_scb_uart.h ****     /**
 524:Generated_Source\PSoC6\pdl\drivers/peripheral/scb/cy_scb_uart.h ****     * Enables the hardware to drop data in the RX FIFO when a frame error is
 525:Generated_Source\PSoC6\pdl\drivers/peripheral/scb/cy_scb_uart.h ****     * detected
 526:Generated_Source\PSoC6\pdl\drivers/peripheral/scb/cy_scb_uart.h ****     */
 527:Generated_Source\PSoC6\pdl\drivers/peripheral/scb/cy_scb_uart.h ****     bool        dropOnFrameError;
 528:Generated_Source\PSoC6\pdl\drivers/peripheral/scb/cy_scb_uart.h **** 
 529:Generated_Source\PSoC6\pdl\drivers/peripheral/scb/cy_scb_uart.h ****     /**
 530:Generated_Source\PSoC6\pdl\drivers/peripheral/scb/cy_scb_uart.h ****     * Enables the UART operation in Multi-Processor mode which requires
 531:Generated_Source\PSoC6\pdl\drivers/peripheral/scb/cy_scb_uart.h ****     * dataWidth to be 9 bits (the 9th bit is used to indicate address byte)
 532:Generated_Source\PSoC6\pdl\drivers/peripheral/scb/cy_scb_uart.h ****     */
 533:Generated_Source\PSoC6\pdl\drivers/peripheral/scb/cy_scb_uart.h ****     bool        enableMutliProcessorMode;
 534:Generated_Source\PSoC6\pdl\drivers/peripheral/scb/cy_scb_uart.h **** 
 535:Generated_Source\PSoC6\pdl\drivers/peripheral/scb/cy_scb_uart.h ****     /**
 536:Generated_Source\PSoC6\pdl\drivers/peripheral/scb/cy_scb_uart.h ****     * If Multi Processor mode is enabled, this is the address of the RX
 537:Generated_Source\PSoC6\pdl\drivers/peripheral/scb/cy_scb_uart.h ****     * FIFO. If the address matches, data is accepted into the FIFO. If
 538:Generated_Source\PSoC6\pdl\drivers/peripheral/scb/cy_scb_uart.h ****     * it does not match, the data is ignored.
 539:Generated_Source\PSoC6\pdl\drivers/peripheral/scb/cy_scb_uart.h ****     */
 540:Generated_Source\PSoC6\pdl\drivers/peripheral/scb/cy_scb_uart.h ****     uint32_t    receiverAddress;
 541:Generated_Source\PSoC6\pdl\drivers/peripheral/scb/cy_scb_uart.h **** 
 542:Generated_Source\PSoC6\pdl\drivers/peripheral/scb/cy_scb_uart.h ****     /**
 543:Generated_Source\PSoC6\pdl\drivers/peripheral/scb/cy_scb_uart.h ****     * This is the address mask for the Multi Processor address. 1 indicates
 544:Generated_Source\PSoC6\pdl\drivers/peripheral/scb/cy_scb_uart.h ****     * that the incoming address must match the corresponding bit in the slave
 545:Generated_Source\PSoC6\pdl\drivers/peripheral/scb/cy_scb_uart.h ****     * address. A 0 in the mask indicates that the incoming address does
 546:Generated_Source\PSoC6\pdl\drivers/peripheral/scb/cy_scb_uart.h ****     * not need to match.
 547:Generated_Source\PSoC6\pdl\drivers/peripheral/scb/cy_scb_uart.h ****     */
 548:Generated_Source\PSoC6\pdl\drivers/peripheral/scb/cy_scb_uart.h ****     uint32_t    receiverAddressMask;
 549:Generated_Source\PSoC6\pdl\drivers/peripheral/scb/cy_scb_uart.h **** 
 550:Generated_Source\PSoC6\pdl\drivers/peripheral/scb/cy_scb_uart.h ****     /**
 551:Generated_Source\PSoC6\pdl\drivers/peripheral/scb/cy_scb_uart.h ****     * Enables the hardware to accept the matching address in the RX FIFO.
 552:Generated_Source\PSoC6\pdl\drivers/peripheral/scb/cy_scb_uart.h ****     * This is useful when the device supports more than one address.
 553:Generated_Source\PSoC6\pdl\drivers/peripheral/scb/cy_scb_uart.h ****     */
 554:Generated_Source\PSoC6\pdl\drivers/peripheral/scb/cy_scb_uart.h ****     bool        acceptAddrInFifo;
 555:Generated_Source\PSoC6\pdl\drivers/peripheral/scb/cy_scb_uart.h **** 
 556:Generated_Source\PSoC6\pdl\drivers/peripheral/scb/cy_scb_uart.h ****     /** Inverts the IrDA RX input */
 557:Generated_Source\PSoC6\pdl\drivers/peripheral/scb/cy_scb_uart.h ****     bool        irdaInvertRx;
 558:Generated_Source\PSoC6\pdl\drivers/peripheral/scb/cy_scb_uart.h **** 
 559:Generated_Source\PSoC6\pdl\drivers/peripheral/scb/cy_scb_uart.h ****     /**
 560:Generated_Source\PSoC6\pdl\drivers/peripheral/scb/cy_scb_uart.h ****     * Enables the low-power receive for IrDA mode.
 561:Generated_Source\PSoC6\pdl\drivers/peripheral/scb/cy_scb_uart.h ****     * Note that the transmission must be disabled if this mode is enabled.
 562:Generated_Source\PSoC6\pdl\drivers/peripheral/scb/cy_scb_uart.h ****     */
 563:Generated_Source\PSoC6\pdl\drivers/peripheral/scb/cy_scb_uart.h ****     bool        irdaEnableLowPowerReceiver;
 564:Generated_Source\PSoC6\pdl\drivers/peripheral/scb/cy_scb_uart.h **** 
ARM GAS  C:\Users\DWISET~1\AppData\Local\Temp\ccnysme0.s 			page 58


 565:Generated_Source\PSoC6\pdl\drivers/peripheral/scb/cy_scb_uart.h ****     /**
 566:Generated_Source\PSoC6\pdl\drivers/peripheral/scb/cy_scb_uart.h ****     * Enables retransmission of the frame placed in the TX FIFO when
 567:Generated_Source\PSoC6\pdl\drivers/peripheral/scb/cy_scb_uart.h ****     * NACK is received in SmartCard mode (for Standard and IrDA , this parameter
 568:Generated_Source\PSoC6\pdl\drivers/peripheral/scb/cy_scb_uart.h ****     * is ignored)
 569:Generated_Source\PSoC6\pdl\drivers/peripheral/scb/cy_scb_uart.h ****     */
 570:Generated_Source\PSoC6\pdl\drivers/peripheral/scb/cy_scb_uart.h ****     bool        smartCardRetryOnNack;
 571:Generated_Source\PSoC6\pdl\drivers/peripheral/scb/cy_scb_uart.h **** 
 572:Generated_Source\PSoC6\pdl\drivers/peripheral/scb/cy_scb_uart.h ****     /**
 573:Generated_Source\PSoC6\pdl\drivers/peripheral/scb/cy_scb_uart.h ****     * Enables the usage of the CTS input signal for the transmitter. The
 574:Generated_Source\PSoC6\pdl\drivers/peripheral/scb/cy_scb_uart.h ****     * transmitter waits for CTS to be active before sending data
 575:Generated_Source\PSoC6\pdl\drivers/peripheral/scb/cy_scb_uart.h ****     */
 576:Generated_Source\PSoC6\pdl\drivers/peripheral/scb/cy_scb_uart.h ****     bool        enableCts;
 577:Generated_Source\PSoC6\pdl\drivers/peripheral/scb/cy_scb_uart.h **** 
 578:Generated_Source\PSoC6\pdl\drivers/peripheral/scb/cy_scb_uart.h ****     /** Sets the CTS Polarity */
 579:Generated_Source\PSoC6\pdl\drivers/peripheral/scb/cy_scb_uart.h ****     cy_en_scb_uart_polarity_t    ctsPolarity;
 580:Generated_Source\PSoC6\pdl\drivers/peripheral/scb/cy_scb_uart.h **** 
 581:Generated_Source\PSoC6\pdl\drivers/peripheral/scb/cy_scb_uart.h ****     /**
 582:Generated_Source\PSoC6\pdl\drivers/peripheral/scb/cy_scb_uart.h ****     * When the RX FIFO has fewer entries than rtsRxFifoLevel, the
 583:Generated_Source\PSoC6\pdl\drivers/peripheral/scb/cy_scb_uart.h ****     * RTS signal is active (note to disable RTS, set this field to zero)
 584:Generated_Source\PSoC6\pdl\drivers/peripheral/scb/cy_scb_uart.h ****     */
 585:Generated_Source\PSoC6\pdl\drivers/peripheral/scb/cy_scb_uart.h ****     uint32_t    rtsRxFifoLevel;
 586:Generated_Source\PSoC6\pdl\drivers/peripheral/scb/cy_scb_uart.h **** 
 587:Generated_Source\PSoC6\pdl\drivers/peripheral/scb/cy_scb_uart.h ****     /** Sets the RTS Polarity */
 588:Generated_Source\PSoC6\pdl\drivers/peripheral/scb/cy_scb_uart.h ****     cy_en_scb_uart_polarity_t    rtsPolarity;
 589:Generated_Source\PSoC6\pdl\drivers/peripheral/scb/cy_scb_uart.h **** 
 590:Generated_Source\PSoC6\pdl\drivers/peripheral/scb/cy_scb_uart.h ****     /** Specifies the number of bits to detect a break condition */
 591:Generated_Source\PSoC6\pdl\drivers/peripheral/scb/cy_scb_uart.h ****     uint32_t    breakWidth;
 592:Generated_Source\PSoC6\pdl\drivers/peripheral/scb/cy_scb_uart.h **** 
 593:Generated_Source\PSoC6\pdl\drivers/peripheral/scb/cy_scb_uart.h ****     /**
 594:Generated_Source\PSoC6\pdl\drivers/peripheral/scb/cy_scb_uart.h ****     * When there are more entries in the RX FIFO than this level
 595:Generated_Source\PSoC6\pdl\drivers/peripheral/scb/cy_scb_uart.h ****     * the RX trigger output goes high. This output can be connected
 596:Generated_Source\PSoC6\pdl\drivers/peripheral/scb/cy_scb_uart.h ****     * to a DMA channel through a trigger mux.
 597:Generated_Source\PSoC6\pdl\drivers/peripheral/scb/cy_scb_uart.h ****     * Also, it controls the \ref CY_SCB_UART_RX_TRIGGER interrupt source.
 598:Generated_Source\PSoC6\pdl\drivers/peripheral/scb/cy_scb_uart.h ****     */
 599:Generated_Source\PSoC6\pdl\drivers/peripheral/scb/cy_scb_uart.h ****     uint32_t    rxFifoTriggerLevel;
 600:Generated_Source\PSoC6\pdl\drivers/peripheral/scb/cy_scb_uart.h **** 
 601:Generated_Source\PSoC6\pdl\drivers/peripheral/scb/cy_scb_uart.h ****     /**
 602:Generated_Source\PSoC6\pdl\drivers/peripheral/scb/cy_scb_uart.h ****     * The bits set in this mask allow the event to cause an interrupt
 603:Generated_Source\PSoC6\pdl\drivers/peripheral/scb/cy_scb_uart.h ****     * (See \ref group_scb_uart_macros_rx_fifo_status for the set of constants)
 604:Generated_Source\PSoC6\pdl\drivers/peripheral/scb/cy_scb_uart.h ****     */
 605:Generated_Source\PSoC6\pdl\drivers/peripheral/scb/cy_scb_uart.h ****     uint32_t    rxFifoIntEnableMask;
 606:Generated_Source\PSoC6\pdl\drivers/peripheral/scb/cy_scb_uart.h **** 
 607:Generated_Source\PSoC6\pdl\drivers/peripheral/scb/cy_scb_uart.h ****     /**
 608:Generated_Source\PSoC6\pdl\drivers/peripheral/scb/cy_scb_uart.h ****     * When there are fewer entries in the TX FIFO then this level
 609:Generated_Source\PSoC6\pdl\drivers/peripheral/scb/cy_scb_uart.h ****     * the TX trigger output goes high. This output can be connected
 610:Generated_Source\PSoC6\pdl\drivers/peripheral/scb/cy_scb_uart.h ****     * to a DMA channel through a trigger mux.
 611:Generated_Source\PSoC6\pdl\drivers/peripheral/scb/cy_scb_uart.h ****     * Also, it controls \ref CY_SCB_UART_TX_TRIGGER interrupt source.
 612:Generated_Source\PSoC6\pdl\drivers/peripheral/scb/cy_scb_uart.h ****     */
 613:Generated_Source\PSoC6\pdl\drivers/peripheral/scb/cy_scb_uart.h ****     uint32_t    txFifoTriggerLevel;
 614:Generated_Source\PSoC6\pdl\drivers/peripheral/scb/cy_scb_uart.h **** 
 615:Generated_Source\PSoC6\pdl\drivers/peripheral/scb/cy_scb_uart.h ****     /**
 616:Generated_Source\PSoC6\pdl\drivers/peripheral/scb/cy_scb_uart.h ****     * Bits set in this mask allows the event to cause an interrupt
 617:Generated_Source\PSoC6\pdl\drivers/peripheral/scb/cy_scb_uart.h ****     * (See \ref group_scb_uart_macros_tx_fifo_status for the set of constants)
 618:Generated_Source\PSoC6\pdl\drivers/peripheral/scb/cy_scb_uart.h ****     */
 619:Generated_Source\PSoC6\pdl\drivers/peripheral/scb/cy_scb_uart.h ****     uint32_t    txFifoIntEnableMask;
 620:Generated_Source\PSoC6\pdl\drivers/peripheral/scb/cy_scb_uart.h **** } cy_stc_scb_uart_config_t;
 621:Generated_Source\PSoC6\pdl\drivers/peripheral/scb/cy_scb_uart.h **** 
ARM GAS  C:\Users\DWISET~1\AppData\Local\Temp\ccnysme0.s 			page 59


 622:Generated_Source\PSoC6\pdl\drivers/peripheral/scb/cy_scb_uart.h **** /** UART context structure.
 623:Generated_Source\PSoC6\pdl\drivers/peripheral/scb/cy_scb_uart.h **** * All fields for the context structure are internal. Firmware never reads or
 624:Generated_Source\PSoC6\pdl\drivers/peripheral/scb/cy_scb_uart.h **** * writes these values. Firmware allocates the structure and provides the
 625:Generated_Source\PSoC6\pdl\drivers/peripheral/scb/cy_scb_uart.h **** * address of the structure to the driver in function calls. Firmware must
 626:Generated_Source\PSoC6\pdl\drivers/peripheral/scb/cy_scb_uart.h **** * ensure that the defined instance of this structure remains in scope
 627:Generated_Source\PSoC6\pdl\drivers/peripheral/scb/cy_scb_uart.h **** * while the drive is in use.
 628:Generated_Source\PSoC6\pdl\drivers/peripheral/scb/cy_scb_uart.h **** */
 629:Generated_Source\PSoC6\pdl\drivers/peripheral/scb/cy_scb_uart.h **** typedef struct cy_stc_scb_uart_context
 630:Generated_Source\PSoC6\pdl\drivers/peripheral/scb/cy_scb_uart.h **** {
 631:Generated_Source\PSoC6\pdl\drivers/peripheral/scb/cy_scb_uart.h ****     /** \cond INTERNAL */
 632:Generated_Source\PSoC6\pdl\drivers/peripheral/scb/cy_scb_uart.h ****     uint32_t volatile txStatus;         /**< The transmit status */
 633:Generated_Source\PSoC6\pdl\drivers/peripheral/scb/cy_scb_uart.h ****     uint32_t volatile rxStatus;         /**< The receive status */
 634:Generated_Source\PSoC6\pdl\drivers/peripheral/scb/cy_scb_uart.h **** 
 635:Generated_Source\PSoC6\pdl\drivers/peripheral/scb/cy_scb_uart.h ****     void     *rxRingBuf;                /**< The pointer to the ring buffer */
 636:Generated_Source\PSoC6\pdl\drivers/peripheral/scb/cy_scb_uart.h ****     uint32_t  rxRingBufSize;            /**< The ring buffer size */
 637:Generated_Source\PSoC6\pdl\drivers/peripheral/scb/cy_scb_uart.h ****     uint32_t volatile rxRingBufHead;    /**< The ring buffer head index */
 638:Generated_Source\PSoC6\pdl\drivers/peripheral/scb/cy_scb_uart.h ****     uint32_t volatile rxRingBufTail;    /**< The ring buffer tail index */
 639:Generated_Source\PSoC6\pdl\drivers/peripheral/scb/cy_scb_uart.h **** 
 640:Generated_Source\PSoC6\pdl\drivers/peripheral/scb/cy_scb_uart.h ****     void     *rxBuf;                    /**< The pointer to the receive buffer */
 641:Generated_Source\PSoC6\pdl\drivers/peripheral/scb/cy_scb_uart.h ****     uint32_t  rxBufSize;                /**< The receive buffer size */
 642:Generated_Source\PSoC6\pdl\drivers/peripheral/scb/cy_scb_uart.h ****     uint32_t volatile rxBufIdx;         /**< The current location in the receive buffer */
 643:Generated_Source\PSoC6\pdl\drivers/peripheral/scb/cy_scb_uart.h **** 
 644:Generated_Source\PSoC6\pdl\drivers/peripheral/scb/cy_scb_uart.h ****     void     *txBuf;                    /**< The pointer to the transmit buffer */
 645:Generated_Source\PSoC6\pdl\drivers/peripheral/scb/cy_scb_uart.h ****     uint32_t  txBufSize;                /**< The transmit buffer size */
 646:Generated_Source\PSoC6\pdl\drivers/peripheral/scb/cy_scb_uart.h ****     uint32_t volatile txLeftToTransmit; /**< The number of data elements left to be transmitted */
 647:Generated_Source\PSoC6\pdl\drivers/peripheral/scb/cy_scb_uart.h **** 
 648:Generated_Source\PSoC6\pdl\drivers/peripheral/scb/cy_scb_uart.h ****     /** The pointer to an event callback that is called when any of
 649:Generated_Source\PSoC6\pdl\drivers/peripheral/scb/cy_scb_uart.h ****     * \ref group_scb_uart_macros_callback_events occurs
 650:Generated_Source\PSoC6\pdl\drivers/peripheral/scb/cy_scb_uart.h ****     */
 651:Generated_Source\PSoC6\pdl\drivers/peripheral/scb/cy_scb_uart.h ****     cy_cb_scb_uart_handle_events_t cbEvents;
 652:Generated_Source\PSoC6\pdl\drivers/peripheral/scb/cy_scb_uart.h **** 
 653:Generated_Source\PSoC6\pdl\drivers/peripheral/scb/cy_scb_uart.h **** #if !defined(NDEBUG)
 654:Generated_Source\PSoC6\pdl\drivers/peripheral/scb/cy_scb_uart.h ****     uint32_t initKey;               /**< Tracks the context initialization */
 655:Generated_Source\PSoC6\pdl\drivers/peripheral/scb/cy_scb_uart.h **** #endif /* !(NDEBUG) */
 656:Generated_Source\PSoC6\pdl\drivers/peripheral/scb/cy_scb_uart.h ****     /** \endcond */
 657:Generated_Source\PSoC6\pdl\drivers/peripheral/scb/cy_scb_uart.h **** } cy_stc_scb_uart_context_t;
 658:Generated_Source\PSoC6\pdl\drivers/peripheral/scb/cy_scb_uart.h **** /** \} group_scb_uart_data_structures */
 659:Generated_Source\PSoC6\pdl\drivers/peripheral/scb/cy_scb_uart.h **** 
 660:Generated_Source\PSoC6\pdl\drivers/peripheral/scb/cy_scb_uart.h **** 
 661:Generated_Source\PSoC6\pdl\drivers/peripheral/scb/cy_scb_uart.h **** /*******************************************************************************
 662:Generated_Source\PSoC6\pdl\drivers/peripheral/scb/cy_scb_uart.h **** *                           Function Prototypes
 663:Generated_Source\PSoC6\pdl\drivers/peripheral/scb/cy_scb_uart.h **** *******************************************************************************/
 664:Generated_Source\PSoC6\pdl\drivers/peripheral/scb/cy_scb_uart.h **** 
 665:Generated_Source\PSoC6\pdl\drivers/peripheral/scb/cy_scb_uart.h **** /**
 666:Generated_Source\PSoC6\pdl\drivers/peripheral/scb/cy_scb_uart.h **** * \addtogroup group_scb_uart_general_functions
 667:Generated_Source\PSoC6\pdl\drivers/peripheral/scb/cy_scb_uart.h **** * \{
 668:Generated_Source\PSoC6\pdl\drivers/peripheral/scb/cy_scb_uart.h **** */
 669:Generated_Source\PSoC6\pdl\drivers/peripheral/scb/cy_scb_uart.h **** cy_en_scb_uart_status_t Cy_SCB_UART_Init(CySCB_Type *base, cy_stc_scb_uart_config_t const *config,
 670:Generated_Source\PSoC6\pdl\drivers/peripheral/scb/cy_scb_uart.h ****                                          cy_stc_scb_uart_context_t *context);
 671:Generated_Source\PSoC6\pdl\drivers/peripheral/scb/cy_scb_uart.h **** void Cy_SCB_UART_DeInit (CySCB_Type *base);
 672:Generated_Source\PSoC6\pdl\drivers/peripheral/scb/cy_scb_uart.h **** __STATIC_INLINE void Cy_SCB_UART_Enable(CySCB_Type *base);
 673:Generated_Source\PSoC6\pdl\drivers/peripheral/scb/cy_scb_uart.h **** void Cy_SCB_UART_Disable(CySCB_Type *base, cy_stc_scb_uart_context_t *context);
 674:Generated_Source\PSoC6\pdl\drivers/peripheral/scb/cy_scb_uart.h **** 
 675:Generated_Source\PSoC6\pdl\drivers/peripheral/scb/cy_scb_uart.h **** __STATIC_INLINE void     Cy_SCB_UART_EnableCts      (CySCB_Type *base);
 676:Generated_Source\PSoC6\pdl\drivers/peripheral/scb/cy_scb_uart.h **** __STATIC_INLINE void     Cy_SCB_UART_DisableCts     (CySCB_Type *base);
 677:Generated_Source\PSoC6\pdl\drivers/peripheral/scb/cy_scb_uart.h **** __STATIC_INLINE void     Cy_SCB_UART_SetRtsFifoLevel(CySCB_Type *base, uint32_t level);
 678:Generated_Source\PSoC6\pdl\drivers/peripheral/scb/cy_scb_uart.h **** __STATIC_INLINE uint32_t Cy_SCB_UART_GetRtsFifoLevel(CySCB_Type const *base);
ARM GAS  C:\Users\DWISET~1\AppData\Local\Temp\ccnysme0.s 			page 60


 679:Generated_Source\PSoC6\pdl\drivers/peripheral/scb/cy_scb_uart.h **** 
 680:Generated_Source\PSoC6\pdl\drivers/peripheral/scb/cy_scb_uart.h **** __STATIC_INLINE void Cy_SCB_UART_EnableSkipStart (CySCB_Type *base);
 681:Generated_Source\PSoC6\pdl\drivers/peripheral/scb/cy_scb_uart.h **** __STATIC_INLINE void Cy_SCB_UART_DisableSkipStart(CySCB_Type *base);
 682:Generated_Source\PSoC6\pdl\drivers/peripheral/scb/cy_scb_uart.h **** /** \} group_scb_uart_general_functions */
 683:Generated_Source\PSoC6\pdl\drivers/peripheral/scb/cy_scb_uart.h **** 
 684:Generated_Source\PSoC6\pdl\drivers/peripheral/scb/cy_scb_uart.h **** /**
 685:Generated_Source\PSoC6\pdl\drivers/peripheral/scb/cy_scb_uart.h **** * \addtogroup group_scb_uart_high_level_functions
 686:Generated_Source\PSoC6\pdl\drivers/peripheral/scb/cy_scb_uart.h **** * \{
 687:Generated_Source\PSoC6\pdl\drivers/peripheral/scb/cy_scb_uart.h **** */
 688:Generated_Source\PSoC6\pdl\drivers/peripheral/scb/cy_scb_uart.h **** void     Cy_SCB_UART_StartRingBuffer   (CySCB_Type *base, void *buffer, uint32_t size,
 689:Generated_Source\PSoC6\pdl\drivers/peripheral/scb/cy_scb_uart.h ****                                         cy_stc_scb_uart_context_t *context);
 690:Generated_Source\PSoC6\pdl\drivers/peripheral/scb/cy_scb_uart.h **** void     Cy_SCB_UART_StopRingBuffer    (CySCB_Type *base, cy_stc_scb_uart_context_t *context);
 691:Generated_Source\PSoC6\pdl\drivers/peripheral/scb/cy_scb_uart.h **** uint32_t Cy_SCB_UART_GetNumInRingBuffer(CySCB_Type const *base, cy_stc_scb_uart_context_t const *co
 692:Generated_Source\PSoC6\pdl\drivers/peripheral/scb/cy_scb_uart.h **** void     Cy_SCB_UART_ClearRingBuffer   (CySCB_Type const *base, cy_stc_scb_uart_context_t *context)
 693:Generated_Source\PSoC6\pdl\drivers/peripheral/scb/cy_scb_uart.h **** 
 694:Generated_Source\PSoC6\pdl\drivers/peripheral/scb/cy_scb_uart.h **** cy_en_scb_uart_status_t Cy_SCB_UART_Receive(CySCB_Type *base, void *buffer, uint32_t size,
 695:Generated_Source\PSoC6\pdl\drivers/peripheral/scb/cy_scb_uart.h ****                                             cy_stc_scb_uart_context_t *context);
 696:Generated_Source\PSoC6\pdl\drivers/peripheral/scb/cy_scb_uart.h **** void     Cy_SCB_UART_AbortReceive    (CySCB_Type *base, cy_stc_scb_uart_context_t *context);
 697:Generated_Source\PSoC6\pdl\drivers/peripheral/scb/cy_scb_uart.h **** uint32_t Cy_SCB_UART_GetReceiveStatus(CySCB_Type const *base, cy_stc_scb_uart_context_t const *cont
 698:Generated_Source\PSoC6\pdl\drivers/peripheral/scb/cy_scb_uart.h **** uint32_t Cy_SCB_UART_GetNumReceived  (CySCB_Type const *base, cy_stc_scb_uart_context_t const *cont
 699:Generated_Source\PSoC6\pdl\drivers/peripheral/scb/cy_scb_uart.h **** 
 700:Generated_Source\PSoC6\pdl\drivers/peripheral/scb/cy_scb_uart.h **** cy_en_scb_uart_status_t Cy_SCB_UART_Transmit(CySCB_Type *base, void *buffer, uint32_t size,
 701:Generated_Source\PSoC6\pdl\drivers/peripheral/scb/cy_scb_uart.h ****                                              cy_stc_scb_uart_context_t *context);
 702:Generated_Source\PSoC6\pdl\drivers/peripheral/scb/cy_scb_uart.h **** void     Cy_SCB_UART_AbortTransmit       (CySCB_Type *base, cy_stc_scb_uart_context_t *context);
 703:Generated_Source\PSoC6\pdl\drivers/peripheral/scb/cy_scb_uart.h **** uint32_t Cy_SCB_UART_GetTransmitStatus   (CySCB_Type const *base, cy_stc_scb_uart_context_t const *
 704:Generated_Source\PSoC6\pdl\drivers/peripheral/scb/cy_scb_uart.h **** uint32_t Cy_SCB_UART_GetNumLeftToTransmit(CySCB_Type const *base, cy_stc_scb_uart_context_t const *
 705:Generated_Source\PSoC6\pdl\drivers/peripheral/scb/cy_scb_uart.h **** /** \} group_scb_uart_high_level_functions */
 706:Generated_Source\PSoC6\pdl\drivers/peripheral/scb/cy_scb_uart.h **** 
 707:Generated_Source\PSoC6\pdl\drivers/peripheral/scb/cy_scb_uart.h **** /**
 708:Generated_Source\PSoC6\pdl\drivers/peripheral/scb/cy_scb_uart.h **** * \addtogroup group_scb_uart_low_level_functions
 709:Generated_Source\PSoC6\pdl\drivers/peripheral/scb/cy_scb_uart.h **** * \{
 710:Generated_Source\PSoC6\pdl\drivers/peripheral/scb/cy_scb_uart.h **** */
 711:Generated_Source\PSoC6\pdl\drivers/peripheral/scb/cy_scb_uart.h **** __STATIC_INLINE uint32_t Cy_SCB_UART_Put             (CySCB_Type *base, uint32_t data);
 712:Generated_Source\PSoC6\pdl\drivers/peripheral/scb/cy_scb_uart.h **** __STATIC_INLINE uint32_t Cy_SCB_UART_PutArray        (CySCB_Type *base, void *buffer, uint32_t size
 713:Generated_Source\PSoC6\pdl\drivers/peripheral/scb/cy_scb_uart.h **** __STATIC_INLINE void     Cy_SCB_UART_PutArrayBlocking(CySCB_Type *base, void *buffer, uint32_t size
 714:Generated_Source\PSoC6\pdl\drivers/peripheral/scb/cy_scb_uart.h **** __STATIC_INLINE void     Cy_SCB_UART_PutString       (CySCB_Type *base, char_t const string[]);
 715:Generated_Source\PSoC6\pdl\drivers/peripheral/scb/cy_scb_uart.h **** void Cy_SCB_UART_SendBreakBlocking(CySCB_Type *base, uint32_t breakWidth);
 716:Generated_Source\PSoC6\pdl\drivers/peripheral/scb/cy_scb_uart.h **** 
 717:Generated_Source\PSoC6\pdl\drivers/peripheral/scb/cy_scb_uart.h **** __STATIC_INLINE uint32_t Cy_SCB_UART_Get             (CySCB_Type const *base);
 718:Generated_Source\PSoC6\pdl\drivers/peripheral/scb/cy_scb_uart.h **** __STATIC_INLINE uint32_t Cy_SCB_UART_GetArray        (CySCB_Type const *base, void *buffer, uint32_
 719:Generated_Source\PSoC6\pdl\drivers/peripheral/scb/cy_scb_uart.h **** __STATIC_INLINE void     Cy_SCB_UART_GetArrayBlocking(CySCB_Type const *base, void *buffer, uint32_
 720:Generated_Source\PSoC6\pdl\drivers/peripheral/scb/cy_scb_uart.h **** 
 721:Generated_Source\PSoC6\pdl\drivers/peripheral/scb/cy_scb_uart.h **** __STATIC_INLINE uint32_t Cy_SCB_UART_GetTxFifoStatus  (CySCB_Type const *base);
 722:Generated_Source\PSoC6\pdl\drivers/peripheral/scb/cy_scb_uart.h **** __STATIC_INLINE void     Cy_SCB_UART_ClearTxFifoStatus(CySCB_Type *base, uint32_t clearMask);
 723:Generated_Source\PSoC6\pdl\drivers/peripheral/scb/cy_scb_uart.h **** 
 724:Generated_Source\PSoC6\pdl\drivers/peripheral/scb/cy_scb_uart.h **** __STATIC_INLINE uint32_t Cy_SCB_UART_GetRxFifoStatus  (CySCB_Type const *base);
 725:Generated_Source\PSoC6\pdl\drivers/peripheral/scb/cy_scb_uart.h **** __STATIC_INLINE void     Cy_SCB_UART_ClearRxFifoStatus(CySCB_Type *base, uint32_t clearMask);
 726:Generated_Source\PSoC6\pdl\drivers/peripheral/scb/cy_scb_uart.h **** 
 727:Generated_Source\PSoC6\pdl\drivers/peripheral/scb/cy_scb_uart.h **** __STATIC_INLINE uint32_t Cy_SCB_UART_GetNumInTxFifo   (CySCB_Type const *base);
 728:Generated_Source\PSoC6\pdl\drivers/peripheral/scb/cy_scb_uart.h **** __STATIC_INLINE bool     Cy_SCB_UART_IsTxComplete     (CySCB_Type const *base);
 729:Generated_Source\PSoC6\pdl\drivers/peripheral/scb/cy_scb_uart.h **** 
 730:Generated_Source\PSoC6\pdl\drivers/peripheral/scb/cy_scb_uart.h **** __STATIC_INLINE uint32_t Cy_SCB_UART_GetNumInRxFifo   (CySCB_Type const *base);
 731:Generated_Source\PSoC6\pdl\drivers/peripheral/scb/cy_scb_uart.h **** 
 732:Generated_Source\PSoC6\pdl\drivers/peripheral/scb/cy_scb_uart.h **** __STATIC_INLINE void     Cy_SCB_UART_ClearRxFifo      (CySCB_Type *base);
 733:Generated_Source\PSoC6\pdl\drivers/peripheral/scb/cy_scb_uart.h **** __STATIC_INLINE void     Cy_SCB_UART_ClearTxFifo      (CySCB_Type *base);
 734:Generated_Source\PSoC6\pdl\drivers/peripheral/scb/cy_scb_uart.h **** /** \} group_scb_uart_low_level_functions */
 735:Generated_Source\PSoC6\pdl\drivers/peripheral/scb/cy_scb_uart.h **** 
ARM GAS  C:\Users\DWISET~1\AppData\Local\Temp\ccnysme0.s 			page 61


 736:Generated_Source\PSoC6\pdl\drivers/peripheral/scb/cy_scb_uart.h **** /**
 737:Generated_Source\PSoC6\pdl\drivers/peripheral/scb/cy_scb_uart.h **** * \addtogroup group_scb_uart_interrupt_functions
 738:Generated_Source\PSoC6\pdl\drivers/peripheral/scb/cy_scb_uart.h **** * \{
 739:Generated_Source\PSoC6\pdl\drivers/peripheral/scb/cy_scb_uart.h **** */
 740:Generated_Source\PSoC6\pdl\drivers/peripheral/scb/cy_scb_uart.h **** void Cy_SCB_UART_Interrupt(CySCB_Type *base, cy_stc_scb_uart_context_t *context);
 741:Generated_Source\PSoC6\pdl\drivers/peripheral/scb/cy_scb_uart.h **** 
 742:Generated_Source\PSoC6\pdl\drivers/peripheral/scb/cy_scb_uart.h **** __STATIC_INLINE void Cy_SCB_UART_RegisterCallback(CySCB_Type const *base, cy_cb_scb_uart_handle_eve
 743:Generated_Source\PSoC6\pdl\drivers/peripheral/scb/cy_scb_uart.h ****                                                   cy_stc_scb_uart_context_t *context);
 744:Generated_Source\PSoC6\pdl\drivers/peripheral/scb/cy_scb_uart.h **** /** \} group_scb_uart_interrupt_functions */
 745:Generated_Source\PSoC6\pdl\drivers/peripheral/scb/cy_scb_uart.h **** 
 746:Generated_Source\PSoC6\pdl\drivers/peripheral/scb/cy_scb_uart.h **** /**
 747:Generated_Source\PSoC6\pdl\drivers/peripheral/scb/cy_scb_uart.h **** * \addtogroup group_scb_uart_low_power_functions
 748:Generated_Source\PSoC6\pdl\drivers/peripheral/scb/cy_scb_uart.h **** * \{
 749:Generated_Source\PSoC6\pdl\drivers/peripheral/scb/cy_scb_uart.h **** */
 750:Generated_Source\PSoC6\pdl\drivers/peripheral/scb/cy_scb_uart.h **** cy_en_syspm_status_t Cy_SCB_UART_DeepSleepCallback(cy_stc_syspm_callback_params_t *callbackParams, 
 751:Generated_Source\PSoC6\pdl\drivers/peripheral/scb/cy_scb_uart.h **** cy_en_syspm_status_t Cy_SCB_UART_HibernateCallback(cy_stc_syspm_callback_params_t *callbackParams, 
 752:Generated_Source\PSoC6\pdl\drivers/peripheral/scb/cy_scb_uart.h **** /** \} group_scb_uart_low_power_functions */
 753:Generated_Source\PSoC6\pdl\drivers/peripheral/scb/cy_scb_uart.h **** 
 754:Generated_Source\PSoC6\pdl\drivers/peripheral/scb/cy_scb_uart.h **** 
 755:Generated_Source\PSoC6\pdl\drivers/peripheral/scb/cy_scb_uart.h **** /*******************************************************************************
 756:Generated_Source\PSoC6\pdl\drivers/peripheral/scb/cy_scb_uart.h **** *                               API Constants
 757:Generated_Source\PSoC6\pdl\drivers/peripheral/scb/cy_scb_uart.h **** *******************************************************************************/
 758:Generated_Source\PSoC6\pdl\drivers/peripheral/scb/cy_scb_uart.h **** 
 759:Generated_Source\PSoC6\pdl\drivers/peripheral/scb/cy_scb_uart.h **** /**
 760:Generated_Source\PSoC6\pdl\drivers/peripheral/scb/cy_scb_uart.h **** * \addtogroup group_scb_uart_macros
 761:Generated_Source\PSoC6\pdl\drivers/peripheral/scb/cy_scb_uart.h **** * \{
 762:Generated_Source\PSoC6\pdl\drivers/peripheral/scb/cy_scb_uart.h **** */
 763:Generated_Source\PSoC6\pdl\drivers/peripheral/scb/cy_scb_uart.h **** 
 764:Generated_Source\PSoC6\pdl\drivers/peripheral/scb/cy_scb_uart.h **** /**
 765:Generated_Source\PSoC6\pdl\drivers/peripheral/scb/cy_scb_uart.h **** * \defgroup group_scb_uart_macros_irda_lp_ovs UART IRDA Low Power Oversample factors
 766:Generated_Source\PSoC6\pdl\drivers/peripheral/scb/cy_scb_uart.h **** * \{
 767:Generated_Source\PSoC6\pdl\drivers/peripheral/scb/cy_scb_uart.h **** */
 768:Generated_Source\PSoC6\pdl\drivers/peripheral/scb/cy_scb_uart.h **** #define CY_SCB_UART_IRDA_LP_OVS16      (1UL)   /**< IrDA in low-power mode oversampled by 16   */
 769:Generated_Source\PSoC6\pdl\drivers/peripheral/scb/cy_scb_uart.h **** #define CY_SCB_UART_IRDA_LP_OVS32      (2UL)   /**< IrDA in low-power mode oversampled by 32   */
 770:Generated_Source\PSoC6\pdl\drivers/peripheral/scb/cy_scb_uart.h **** #define CY_SCB_UART_IRDA_LP_OVS48      (3UL)   /**< IrDA in low-power mode oversampled by 48   */
 771:Generated_Source\PSoC6\pdl\drivers/peripheral/scb/cy_scb_uart.h **** #define CY_SCB_UART_IRDA_LP_OVS96      (4UL)   /**< IrDA in low-power mode oversampled by 96   */
 772:Generated_Source\PSoC6\pdl\drivers/peripheral/scb/cy_scb_uart.h **** #define CY_SCB_UART_IRDA_LP_OVS192     (5UL)   /**< IrDA in low-power mode oversampled by 192  */
 773:Generated_Source\PSoC6\pdl\drivers/peripheral/scb/cy_scb_uart.h **** #define CY_SCB_UART_IRDA_LP_OVS768     (6UL)   /**< IrDA in low-power mode oversampled by 768  */
 774:Generated_Source\PSoC6\pdl\drivers/peripheral/scb/cy_scb_uart.h **** #define CY_SCB_UART_IRDA_LP_OVS1536    (7UL)   /**< IrDA in low-power mode oversampled by 1536 */
 775:Generated_Source\PSoC6\pdl\drivers/peripheral/scb/cy_scb_uart.h **** /** \} group_scb_uart_macros_irda_lp_ovs */
 776:Generated_Source\PSoC6\pdl\drivers/peripheral/scb/cy_scb_uart.h **** 
 777:Generated_Source\PSoC6\pdl\drivers/peripheral/scb/cy_scb_uart.h **** /**
 778:Generated_Source\PSoC6\pdl\drivers/peripheral/scb/cy_scb_uart.h **** * \defgroup group_scb_uart_macros_rx_fifo_status UART RX FIFO status.
 779:Generated_Source\PSoC6\pdl\drivers/peripheral/scb/cy_scb_uart.h **** * \{
 780:Generated_Source\PSoC6\pdl\drivers/peripheral/scb/cy_scb_uart.h **** * Macros to check UART RX FIFO status returned by \ref Cy_SCB_UART_GetRxFifoStatus
 781:Generated_Source\PSoC6\pdl\drivers/peripheral/scb/cy_scb_uart.h **** * function or assign mask for \ref Cy_SCB_UART_ClearRxFifoStatus function.
 782:Generated_Source\PSoC6\pdl\drivers/peripheral/scb/cy_scb_uart.h **** * Each UART RX FIFO status is encoded in a separate bit, therefore multiple
 783:Generated_Source\PSoC6\pdl\drivers/peripheral/scb/cy_scb_uart.h **** * bits may be set to indicate the current status.
 784:Generated_Source\PSoC6\pdl\drivers/peripheral/scb/cy_scb_uart.h **** */
 785:Generated_Source\PSoC6\pdl\drivers/peripheral/scb/cy_scb_uart.h **** 
 786:Generated_Source\PSoC6\pdl\drivers/peripheral/scb/cy_scb_uart.h **** /** The number of entries in the RX FIFO is more than the RX FIFO trigger level
 787:Generated_Source\PSoC6\pdl\drivers/peripheral/scb/cy_scb_uart.h **** * value
 788:Generated_Source\PSoC6\pdl\drivers/peripheral/scb/cy_scb_uart.h **** */
 789:Generated_Source\PSoC6\pdl\drivers/peripheral/scb/cy_scb_uart.h **** #define CY_SCB_UART_RX_TRIGGER         (SCB_INTR_RX_TRIGGER_Msk)
 790:Generated_Source\PSoC6\pdl\drivers/peripheral/scb/cy_scb_uart.h **** 
 791:Generated_Source\PSoC6\pdl\drivers/peripheral/scb/cy_scb_uart.h **** /** The RX FIFO is not empty, there is data to read */
 792:Generated_Source\PSoC6\pdl\drivers/peripheral/scb/cy_scb_uart.h **** #define CY_SCB_UART_RX_NOT_EMPTY       (SCB_INTR_RX_NOT_EMPTY_Msk)
ARM GAS  C:\Users\DWISET~1\AppData\Local\Temp\ccnysme0.s 			page 62


 793:Generated_Source\PSoC6\pdl\drivers/peripheral/scb/cy_scb_uart.h **** 
 794:Generated_Source\PSoC6\pdl\drivers/peripheral/scb/cy_scb_uart.h **** /**
 795:Generated_Source\PSoC6\pdl\drivers/peripheral/scb/cy_scb_uart.h **** * The RX FIFO is full, there is no more space for additional data, and
 796:Generated_Source\PSoC6\pdl\drivers/peripheral/scb/cy_scb_uart.h **** * any additional data will be dropped
 797:Generated_Source\PSoC6\pdl\drivers/peripheral/scb/cy_scb_uart.h **** */
 798:Generated_Source\PSoC6\pdl\drivers/peripheral/scb/cy_scb_uart.h **** #define CY_SCB_UART_RX_FULL            (SCB_INTR_RX_FULL_Msk)
 799:Generated_Source\PSoC6\pdl\drivers/peripheral/scb/cy_scb_uart.h **** 
 800:Generated_Source\PSoC6\pdl\drivers/peripheral/scb/cy_scb_uart.h **** /**
 801:Generated_Source\PSoC6\pdl\drivers/peripheral/scb/cy_scb_uart.h **** * The RX FIFO was full and there was an attempt to write to it.
 802:Generated_Source\PSoC6\pdl\drivers/peripheral/scb/cy_scb_uart.h **** * That additional data was dropped.
 803:Generated_Source\PSoC6\pdl\drivers/peripheral/scb/cy_scb_uart.h **** */
 804:Generated_Source\PSoC6\pdl\drivers/peripheral/scb/cy_scb_uart.h **** #define CY_SCB_UART_RX_OVERFLOW        (SCB_INTR_RX_OVERFLOW_Msk)
 805:Generated_Source\PSoC6\pdl\drivers/peripheral/scb/cy_scb_uart.h **** 
 806:Generated_Source\PSoC6\pdl\drivers/peripheral/scb/cy_scb_uart.h **** /** An attempt to read from an empty RX FIFO */
 807:Generated_Source\PSoC6\pdl\drivers/peripheral/scb/cy_scb_uart.h **** #define CY_SCB_UART_RX_UNDERFLOW       (SCB_INTR_RX_UNDERFLOW_Msk)
 808:Generated_Source\PSoC6\pdl\drivers/peripheral/scb/cy_scb_uart.h **** 
 809:Generated_Source\PSoC6\pdl\drivers/peripheral/scb/cy_scb_uart.h **** /** The RX FIFO detected a frame error, either a stop or stop-bit error */
 810:Generated_Source\PSoC6\pdl\drivers/peripheral/scb/cy_scb_uart.h **** #define CY_SCB_UART_RX_ERR_FRAME       (SCB_INTR_RX_FRAME_ERROR_Msk)
 811:Generated_Source\PSoC6\pdl\drivers/peripheral/scb/cy_scb_uart.h **** 
 812:Generated_Source\PSoC6\pdl\drivers/peripheral/scb/cy_scb_uart.h **** /** The RX FIFO detected a parity error */
 813:Generated_Source\PSoC6\pdl\drivers/peripheral/scb/cy_scb_uart.h **** #define CY_SCB_UART_RX_ERR_PARITY      (SCB_INTR_RX_PARITY_ERROR_Msk)
 814:Generated_Source\PSoC6\pdl\drivers/peripheral/scb/cy_scb_uart.h **** 
 815:Generated_Source\PSoC6\pdl\drivers/peripheral/scb/cy_scb_uart.h **** /** The RX FIFO detected a break transmission from the transmitter */
 816:Generated_Source\PSoC6\pdl\drivers/peripheral/scb/cy_scb_uart.h **** #define CY_SCB_UART_RX_BREAK_DETECT    (SCB_INTR_RX_BREAK_DETECT_Msk)
 817:Generated_Source\PSoC6\pdl\drivers/peripheral/scb/cy_scb_uart.h **** /** \} group_scb_uart_macros_rx_fifo_status */
 818:Generated_Source\PSoC6\pdl\drivers/peripheral/scb/cy_scb_uart.h **** 
 819:Generated_Source\PSoC6\pdl\drivers/peripheral/scb/cy_scb_uart.h **** /**
 820:Generated_Source\PSoC6\pdl\drivers/peripheral/scb/cy_scb_uart.h **** * \defgroup group_scb_uart_macros_tx_fifo_status UART TX FIFO Statuses
 821:Generated_Source\PSoC6\pdl\drivers/peripheral/scb/cy_scb_uart.h **** * \{
 822:Generated_Source\PSoC6\pdl\drivers/peripheral/scb/cy_scb_uart.h **** * Macros to check UART TX FIFO status returned by \ref Cy_SCB_UART_GetTxFifoStatus
 823:Generated_Source\PSoC6\pdl\drivers/peripheral/scb/cy_scb_uart.h **** * function or assign mask for \ref Cy_SCB_UART_ClearTxFifoStatus function.
 824:Generated_Source\PSoC6\pdl\drivers/peripheral/scb/cy_scb_uart.h **** * Each UART TX FIFO status is encoded in a separate bit, therefore multiple bits
 825:Generated_Source\PSoC6\pdl\drivers/peripheral/scb/cy_scb_uart.h **** * may be set to indicate the current status.
 826:Generated_Source\PSoC6\pdl\drivers/peripheral/scb/cy_scb_uart.h **** */
 827:Generated_Source\PSoC6\pdl\drivers/peripheral/scb/cy_scb_uart.h **** 
 828:Generated_Source\PSoC6\pdl\drivers/peripheral/scb/cy_scb_uart.h **** /** The number of entries in the TX FIFO is less than the TX FIFO trigger level
 829:Generated_Source\PSoC6\pdl\drivers/peripheral/scb/cy_scb_uart.h **** * value
 830:Generated_Source\PSoC6\pdl\drivers/peripheral/scb/cy_scb_uart.h **** */
 831:Generated_Source\PSoC6\pdl\drivers/peripheral/scb/cy_scb_uart.h **** #define CY_SCB_UART_TX_TRIGGER     (SCB_INTR_TX_TRIGGER_Msk)
 832:Generated_Source\PSoC6\pdl\drivers/peripheral/scb/cy_scb_uart.h **** 
 833:Generated_Source\PSoC6\pdl\drivers/peripheral/scb/cy_scb_uart.h **** /** The TX FIFO is not full, there is a space for more data */
 834:Generated_Source\PSoC6\pdl\drivers/peripheral/scb/cy_scb_uart.h **** #define CY_SCB_UART_TX_NOT_FULL    (SCB_INTR_TX_NOT_FULL_Msk)
 835:Generated_Source\PSoC6\pdl\drivers/peripheral/scb/cy_scb_uart.h **** 
 836:Generated_Source\PSoC6\pdl\drivers/peripheral/scb/cy_scb_uart.h **** /** The TX FIFO is empty, note there may still be data in the shift register.*/
 837:Generated_Source\PSoC6\pdl\drivers/peripheral/scb/cy_scb_uart.h **** #define CY_SCB_UART_TX_EMPTY       (SCB_INTR_TX_EMPTY_Msk)
 838:Generated_Source\PSoC6\pdl\drivers/peripheral/scb/cy_scb_uart.h **** 
 839:Generated_Source\PSoC6\pdl\drivers/peripheral/scb/cy_scb_uart.h **** /** An attempt to write to the full TX FIFO */
 840:Generated_Source\PSoC6\pdl\drivers/peripheral/scb/cy_scb_uart.h **** #define CY_SCB_UART_TX_OVERFLOW    (SCB_INTR_TX_OVERFLOW_Msk)
 841:Generated_Source\PSoC6\pdl\drivers/peripheral/scb/cy_scb_uart.h **** 
 842:Generated_Source\PSoC6\pdl\drivers/peripheral/scb/cy_scb_uart.h **** /** An attempt to read from an empty transmitter FIFO (hardware reads). */
 843:Generated_Source\PSoC6\pdl\drivers/peripheral/scb/cy_scb_uart.h **** #define CY_SCB_UART_TX_UNDERFLOW (SCB_INTR_TX_UNDERFLOW_Msk)
 844:Generated_Source\PSoC6\pdl\drivers/peripheral/scb/cy_scb_uart.h **** 
 845:Generated_Source\PSoC6\pdl\drivers/peripheral/scb/cy_scb_uart.h **** /** All data has been transmitted out of the FIFO, including shifter */
 846:Generated_Source\PSoC6\pdl\drivers/peripheral/scb/cy_scb_uart.h **** #define CY_SCB_UART_TX_DONE        (SCB_INTR_TX_UART_DONE_Msk)
 847:Generated_Source\PSoC6\pdl\drivers/peripheral/scb/cy_scb_uart.h **** 
 848:Generated_Source\PSoC6\pdl\drivers/peripheral/scb/cy_scb_uart.h **** /** SmartCard only: the transmitter received a NACK */
 849:Generated_Source\PSoC6\pdl\drivers/peripheral/scb/cy_scb_uart.h **** #define CY_SCB_UART_TX_NACK        (SCB_INTR_TX_UART_NACK_Msk)
ARM GAS  C:\Users\DWISET~1\AppData\Local\Temp\ccnysme0.s 			page 63


 850:Generated_Source\PSoC6\pdl\drivers/peripheral/scb/cy_scb_uart.h **** 
 851:Generated_Source\PSoC6\pdl\drivers/peripheral/scb/cy_scb_uart.h **** /** SmartCard only: the transmitter lost arbitration */
 852:Generated_Source\PSoC6\pdl\drivers/peripheral/scb/cy_scb_uart.h **** #define CY_SCB_UART_TX_ARB_LOST    (SCB_INTR_TX_UART_ARB_LOST_Msk)
 853:Generated_Source\PSoC6\pdl\drivers/peripheral/scb/cy_scb_uart.h **** /** \} group_scb_uart_macros_tx_fifo_status */
 854:Generated_Source\PSoC6\pdl\drivers/peripheral/scb/cy_scb_uart.h **** 
 855:Generated_Source\PSoC6\pdl\drivers/peripheral/scb/cy_scb_uart.h **** /**
 856:Generated_Source\PSoC6\pdl\drivers/peripheral/scb/cy_scb_uart.h **** * \defgroup group_scb_uart_macros_receive_status UART Receive Statuses
 857:Generated_Source\PSoC6\pdl\drivers/peripheral/scb/cy_scb_uart.h **** * \{
 858:Generated_Source\PSoC6\pdl\drivers/peripheral/scb/cy_scb_uart.h **** * Macros to check current UART receive status returned by
 859:Generated_Source\PSoC6\pdl\drivers/peripheral/scb/cy_scb_uart.h **** * \ref Cy_SCB_UART_GetReceiveStatus function.
 860:Generated_Source\PSoC6\pdl\drivers/peripheral/scb/cy_scb_uart.h **** * Each UART receive status is encoded in a separate bit, therefore multiple bits
 861:Generated_Source\PSoC6\pdl\drivers/peripheral/scb/cy_scb_uart.h **** * may be set to indicate the current status.
 862:Generated_Source\PSoC6\pdl\drivers/peripheral/scb/cy_scb_uart.h **** */
 863:Generated_Source\PSoC6\pdl\drivers/peripheral/scb/cy_scb_uart.h **** /** The receive operation started by \ref Cy_SCB_UART_Receive is in progress */
 864:Generated_Source\PSoC6\pdl\drivers/peripheral/scb/cy_scb_uart.h **** #define CY_SCB_UART_RECEIVE_ACTIVE         (0x01UL)
 865:Generated_Source\PSoC6\pdl\drivers/peripheral/scb/cy_scb_uart.h **** 
 866:Generated_Source\PSoC6\pdl\drivers/peripheral/scb/cy_scb_uart.h **** /**
 867:Generated_Source\PSoC6\pdl\drivers/peripheral/scb/cy_scb_uart.h **** * The hardware RX FIFO was full and there was an attempt to write to it.
 868:Generated_Source\PSoC6\pdl\drivers/peripheral/scb/cy_scb_uart.h **** * That additional data was dropped.
 869:Generated_Source\PSoC6\pdl\drivers/peripheral/scb/cy_scb_uart.h **** */
 870:Generated_Source\PSoC6\pdl\drivers/peripheral/scb/cy_scb_uart.h **** #define CY_SCB_UART_RECEIVE_OVERFLOW       (SCB_INTR_RX_OVERFLOW_Msk)
 871:Generated_Source\PSoC6\pdl\drivers/peripheral/scb/cy_scb_uart.h **** 
 872:Generated_Source\PSoC6\pdl\drivers/peripheral/scb/cy_scb_uart.h **** /** The receive hardware detected a frame error, either a start or
 873:Generated_Source\PSoC6\pdl\drivers/peripheral/scb/cy_scb_uart.h **** * stop bit error
 874:Generated_Source\PSoC6\pdl\drivers/peripheral/scb/cy_scb_uart.h **** */
 875:Generated_Source\PSoC6\pdl\drivers/peripheral/scb/cy_scb_uart.h **** #define CY_SCB_UART_RECEIVE_ERR_FRAME      (SCB_INTR_RX_FRAME_ERROR_Msk)
 876:Generated_Source\PSoC6\pdl\drivers/peripheral/scb/cy_scb_uart.h **** 
 877:Generated_Source\PSoC6\pdl\drivers/peripheral/scb/cy_scb_uart.h **** /** The receive hardware detected a parity error */
 878:Generated_Source\PSoC6\pdl\drivers/peripheral/scb/cy_scb_uart.h **** #define CY_SCB_UART_RECEIVE_ERR_PARITY     (SCB_INTR_RX_PARITY_ERROR_Msk)
 879:Generated_Source\PSoC6\pdl\drivers/peripheral/scb/cy_scb_uart.h **** 
 880:Generated_Source\PSoC6\pdl\drivers/peripheral/scb/cy_scb_uart.h **** /** The receive hardware detected a break transmission from transmitter */
 881:Generated_Source\PSoC6\pdl\drivers/peripheral/scb/cy_scb_uart.h **** #define CY_SCB_UART_RECEIVE_BREAK_DETECT   (SCB_INTR_RX_BREAK_DETECT_Msk)
 882:Generated_Source\PSoC6\pdl\drivers/peripheral/scb/cy_scb_uart.h **** /** \} group_scb_uart_macros_receive_status */
 883:Generated_Source\PSoC6\pdl\drivers/peripheral/scb/cy_scb_uart.h **** 
 884:Generated_Source\PSoC6\pdl\drivers/peripheral/scb/cy_scb_uart.h **** /**
 885:Generated_Source\PSoC6\pdl\drivers/peripheral/scb/cy_scb_uart.h **** * \defgroup group_scb_uart_macros_transmit_status UART Transmit Status
 886:Generated_Source\PSoC6\pdl\drivers/peripheral/scb/cy_scb_uart.h **** * \{
 887:Generated_Source\PSoC6\pdl\drivers/peripheral/scb/cy_scb_uart.h **** * Macros to check current UART transmit status returned by
 888:Generated_Source\PSoC6\pdl\drivers/peripheral/scb/cy_scb_uart.h **** * \ref Cy_SCB_UART_GetTransmitStatus function.
 889:Generated_Source\PSoC6\pdl\drivers/peripheral/scb/cy_scb_uart.h **** * Each UART transmit status is encoded in a separate bit, therefore multiple bits
 890:Generated_Source\PSoC6\pdl\drivers/peripheral/scb/cy_scb_uart.h **** * may be set to indicate the current status.
 891:Generated_Source\PSoC6\pdl\drivers/peripheral/scb/cy_scb_uart.h **** */
 892:Generated_Source\PSoC6\pdl\drivers/peripheral/scb/cy_scb_uart.h **** 
 893:Generated_Source\PSoC6\pdl\drivers/peripheral/scb/cy_scb_uart.h **** /** The transmit operation started by \ref Cy_SCB_UART_Transmit is in progress */
 894:Generated_Source\PSoC6\pdl\drivers/peripheral/scb/cy_scb_uart.h **** #define CY_SCB_UART_TRANSMIT_ACTIVE    (0x01UL)
 895:Generated_Source\PSoC6\pdl\drivers/peripheral/scb/cy_scb_uart.h **** 
 896:Generated_Source\PSoC6\pdl\drivers/peripheral/scb/cy_scb_uart.h **** /**
 897:Generated_Source\PSoC6\pdl\drivers/peripheral/scb/cy_scb_uart.h **** * All data elements specified by \ref Cy_SCB_UART_Transmit have been loaded
 898:Generated_Source\PSoC6\pdl\drivers/peripheral/scb/cy_scb_uart.h **** * into the TX FIFO
 899:Generated_Source\PSoC6\pdl\drivers/peripheral/scb/cy_scb_uart.h **** */
 900:Generated_Source\PSoC6\pdl\drivers/peripheral/scb/cy_scb_uart.h **** #define CY_SCB_UART_TRANSMIT_IN_FIFO   (0x02UL)
 901:Generated_Source\PSoC6\pdl\drivers/peripheral/scb/cy_scb_uart.h **** 
 902:Generated_Source\PSoC6\pdl\drivers/peripheral/scb/cy_scb_uart.h **** /** SmartCard only: the transmitter received a NACK */
 903:Generated_Source\PSoC6\pdl\drivers/peripheral/scb/cy_scb_uart.h **** #define CY_SCB_UART_TRANSMIT_NACK      (SCB_INTR_TX_UART_NACK_Msk)
 904:Generated_Source\PSoC6\pdl\drivers/peripheral/scb/cy_scb_uart.h **** 
 905:Generated_Source\PSoC6\pdl\drivers/peripheral/scb/cy_scb_uart.h **** /** SmartCard only: the transmitter lost arbitration */
 906:Generated_Source\PSoC6\pdl\drivers/peripheral/scb/cy_scb_uart.h **** #define CY_SCB_UART_TRANSMIT_ARB_LOST  (SCB_INTR_TX_UART_ARB_LOST_Msk)
ARM GAS  C:\Users\DWISET~1\AppData\Local\Temp\ccnysme0.s 			page 64


 907:Generated_Source\PSoC6\pdl\drivers/peripheral/scb/cy_scb_uart.h **** /** \} group_scb_uart_macros_transmit_status */
 908:Generated_Source\PSoC6\pdl\drivers/peripheral/scb/cy_scb_uart.h **** 
 909:Generated_Source\PSoC6\pdl\drivers/peripheral/scb/cy_scb_uart.h **** /**
 910:Generated_Source\PSoC6\pdl\drivers/peripheral/scb/cy_scb_uart.h **** * \defgroup group_scb_uart_macros_callback_events UART Callback Events
 911:Generated_Source\PSoC6\pdl\drivers/peripheral/scb/cy_scb_uart.h **** * \{
 912:Generated_Source\PSoC6\pdl\drivers/peripheral/scb/cy_scb_uart.h **** * Macros to check UART events passed by \ref cy_cb_scb_uart_handle_events_t callback.
 913:Generated_Source\PSoC6\pdl\drivers/peripheral/scb/cy_scb_uart.h **** * Note that only single event is notified by the callback when it is called.
 914:Generated_Source\PSoC6\pdl\drivers/peripheral/scb/cy_scb_uart.h **** */
 915:Generated_Source\PSoC6\pdl\drivers/peripheral/scb/cy_scb_uart.h **** 
 916:Generated_Source\PSoC6\pdl\drivers/peripheral/scb/cy_scb_uart.h **** /**
 917:Generated_Source\PSoC6\pdl\drivers/peripheral/scb/cy_scb_uart.h **** * All data elements specified by \ref Cy_SCB_UART_Transmit have been loaded
 918:Generated_Source\PSoC6\pdl\drivers/peripheral/scb/cy_scb_uart.h **** * into the TX FIFO
 919:Generated_Source\PSoC6\pdl\drivers/peripheral/scb/cy_scb_uart.h **** */
